
RFS_SENSOR.elf:     file format elf32-littlenios2
RFS_SENSOR.elf
architecture: nios2:r1, flags 0x00000112:
EXEC_P, HAS_SYMS, D_PAGED
start address 0x00000230

Program Header:
    LOAD off    0x00001000 vaddr 0x00000000 paddr 0x00000000 align 2**12
         filesz 0x00000020 memsz 0x00000020 flags r-x
    LOAD off    0x00001020 vaddr 0x00000020 paddr 0x00000020 align 2**12
         filesz 0x0001ed60 memsz 0x0001ed60 flags r-x
    LOAD off    0x0001fd80 vaddr 0x0001ed80 paddr 0x00020944 align 2**12
         filesz 0x00001bc4 memsz 0x00001bc4 flags rw-
    LOAD off    0x00022508 vaddr 0x00022508 paddr 0x00022508 align 2**12
         filesz 0x00000000 memsz 0x00000234 flags rw-

Sections:
Idx Name          Size      VMA       LMA       File off  Algn
  0 .entry        00000020  00000000  00000000  00001000  2**5
                  CONTENTS, ALLOC, LOAD, READONLY, CODE
  1 .exceptions   00000210  00000020  00000020  00001020  2**2
                  CONTENTS, ALLOC, LOAD, READONLY, CODE
  2 .text         0001dd30  00000230  00000230  00001230  2**2
                  CONTENTS, ALLOC, LOAD, READONLY, CODE
  3 .rodata       00000e20  0001df60  0001df60  0001ef60  2**2
                  CONTENTS, ALLOC, LOAD, READONLY, DATA
  4 .rwdata       00001bc4  0001ed80  00020944  0001fd80  2**2
                  CONTENTS, ALLOC, LOAD, DATA, SMALL_DATA
  5 .bss          00000234  00022508  00022508  00022508  2**2
                  ALLOC, SMALL_DATA
  6 .nios_system_onchip_memory2 00000000  0002273c  0002273c  00021944  2**0
                  CONTENTS
  7 .nios_system_shared_memory 00000000  00040000  00040000  00021944  2**0
                  CONTENTS
  8 .comment      00000023  00000000  00000000  00021944  2**0
                  CONTENTS, READONLY
  9 .debug_aranges 00001678  00000000  00000000  00021968  2**3
                  CONTENTS, READONLY, DEBUGGING
 10 .debug_info   0003a696  00000000  00000000  00022fe0  2**0
                  CONTENTS, READONLY, DEBUGGING
 11 .debug_abbrev 0000ebf7  00000000  00000000  0005d676  2**0
                  CONTENTS, READONLY, DEBUGGING
 12 .debug_line   00013687  00000000  00000000  0006c26d  2**0
                  CONTENTS, READONLY, DEBUGGING
 13 .debug_frame  00003acc  00000000  00000000  0007f8f4  2**2
                  CONTENTS, READONLY, DEBUGGING
 14 .debug_str    0000575c  00000000  00000000  000833c0  2**0
                  CONTENTS, READONLY, DEBUGGING
 15 .debug_loc    0002bc48  00000000  00000000  00088b1c  2**0
                  CONTENTS, READONLY, DEBUGGING
 16 .debug_alt_sim_info 00000040  00000000  00000000  000b4764  2**2
                  CONTENTS, READONLY, DEBUGGING
 17 .debug_ranges 00002988  00000000  00000000  000b47a8  2**3
                  CONTENTS, READONLY, DEBUGGING
 18 .thread_model 00000003  00000000  00000000  000bbd0a  2**0
                  CONTENTS, READONLY
 19 .cpu          00000016  00000000  00000000  000bbd0d  2**0
                  CONTENTS, READONLY
 20 .qsys         00000001  00000000  00000000  000bbd23  2**0
                  CONTENTS, READONLY
 21 .simulation_enabled 00000001  00000000  00000000  000bbd24  2**0
                  CONTENTS, READONLY
 22 .sysid_hash   00000004  00000000  00000000  000bbd25  2**0
                  CONTENTS, READONLY
 23 .sysid_base   00000004  00000000  00000000  000bbd29  2**0
                  CONTENTS, READONLY
 24 .sysid_time   00000004  00000000  00000000  000bbd2d  2**0
                  CONTENTS, READONLY
 25 .stderr_dev   00000015  00000000  00000000  000bbd31  2**0
                  CONTENTS, READONLY
 26 .stdin_dev    00000015  00000000  00000000  000bbd46  2**0
                  CONTENTS, READONLY
 27 .stdout_dev   00000015  00000000  00000000  000bbd5b  2**0
                  CONTENTS, READONLY
 28 .sopc_system_name 00000008  00000000  00000000  000bbd70  2**0
                  CONTENTS, READONLY
 29 .quartus_project_dir 00000041  00000000  00000000  000bbd78  2**0
                  CONTENTS, READONLY
 30 .jdi          0000fb5a  00000000  00000000  000bbdb9  2**0
                  CONTENTS, READONLY
 31 .sopcinfo     00353cf5  00000000  00000000  000cb913  2**0
                  CONTENTS, READONLY
SYMBOL TABLE:
00000000 l    d  .entry	00000000 .entry
00000020 l    d  .exceptions	00000000 .exceptions
00000230 l    d  .text	00000000 .text
0001df60 l    d  .rodata	00000000 .rodata
0001ed80 l    d  .rwdata	00000000 .rwdata
00022508 l    d  .bss	00000000 .bss
0002273c l    d  .nios_system_onchip_memory2	00000000 .nios_system_onchip_memory2
00040000 l    d  .nios_system_shared_memory	00000000 .nios_system_shared_memory
00000000 l    d  .comment	00000000 .comment
00000000 l    d  .debug_aranges	00000000 .debug_aranges
00000000 l    d  .debug_info	00000000 .debug_info
00000000 l    d  .debug_abbrev	00000000 .debug_abbrev
00000000 l    d  .debug_line	00000000 .debug_line
00000000 l    d  .debug_frame	00000000 .debug_frame
00000000 l    d  .debug_str	00000000 .debug_str
00000000 l    d  .debug_loc	00000000 .debug_loc
00000000 l    d  .debug_alt_sim_info	00000000 .debug_alt_sim_info
00000000 l    d  .debug_ranges	00000000 .debug_ranges
00000000 l    df *ABS*	00000000 ../RFS_SENSOR_bsp//obj/HAL/src/crt0.o
00000268 l       .text	00000000 alt_after_alt_main
00000000 l    df *ABS*	00000000 alt_irq_handler.c
00000000 l    df *ABS*	00000000 alt_instruction_exception_entry.c
00000000 l    df *ABS*	00000000 I2C_core.c
00000000 l    df *ABS*	00000000 esp8266.c
00000000 l    df *ABS*	00000000 light_sensor.c
000208f0 l     O .rwdata	00000004 Light_I2C_Controller_Base
00000000 l    df *ABS*	00000000 mpu9250.c
00000000 l    df *ABS*	00000000 rh_temp.c
00000000 l    df *ABS*	00000000 main.c
00022558 l     O .bss	00000080 thresh
000208f4 l     O .rwdata	00000001 g_clear_OOR_flag
00022518 l     O .bss	00000004 out_of_range.4523
00000000 l    df *ABS*	00000000 wf_pow.c
00000000 l    df *ABS*	00000000 ef_pow.c
00000000 l    df *ABS*	00000000 ef_sqrt.c
00000000 l    df *ABS*	00000000 s_lib_ver.c
00000000 l    df *ABS*	00000000 s_matherr.c
00000000 l    df *ABS*	00000000 s_rint.c
0001e8ac l     O .rodata	00000010 TWO52
00000000 l    df *ABS*	00000000 sf_fabs.c
00000000 l    df *ABS*	00000000 sf_finite.c
00000000 l    df *ABS*	00000000 sf_fpclassify.c
00000000 l    df *ABS*	00000000 sf_nan.c
00000000 l    df *ABS*	00000000 sf_scalbn.c
00000000 l    df *ABS*	00000000 sf_copysign.c
00000000 l    df *ABS*	00000000 lib2-divmod.c
00000000 l    df *ABS*	00000000 lib2-mul.c
00000000 l    df *ABS*	00000000 addsf3.c
00000000 l    df *ABS*	00000000 divsf3.c
00000000 l    df *ABS*	00000000 eqsf2.c
00000000 l    df *ABS*	00000000 gesf2.c
00000000 l    df *ABS*	00000000 lesf2.c
00000000 l    df *ABS*	00000000 mulsf3.c
00000000 l    df *ABS*	00000000 subsf3.c
00000000 l    df *ABS*	00000000 floatsisf.c
00000000 l    df *ABS*	00000000 floatunsisf.c
00000000 l    df *ABS*	00000000 adddf3.c
00000000 l    df *ABS*	00000000 divdf3.c
00000000 l    df *ABS*	00000000 eqdf2.c
00000000 l    df *ABS*	00000000 gedf2.c
00000000 l    df *ABS*	00000000 ledf2.c
00000000 l    df *ABS*	00000000 muldf3.c
00000000 l    df *ABS*	00000000 subdf3.c
00000000 l    df *ABS*	00000000 floatsidf.c
00000000 l    df *ABS*	00000000 extendsfdf2.c
00000000 l    df *ABS*	00000000 truncdfsf2.c
00000000 l    df *ABS*	00000000 libgcc2.c
00000000 l    df *ABS*	00000000 libgcc2.c
00000000 l    df *ABS*	00000000 errno.c
00000000 l    df *ABS*	00000000 fflush.c
00000000 l    df *ABS*	00000000 fgets.c
00000000 l    df *ABS*	00000000 fileno.c
00000000 l    df *ABS*	00000000 findfp.c
00009660 l     F .text	00000008 __fp_unlock
00009674 l     F .text	0000019c __sinit.part.1
00009810 l     F .text	00000008 __fp_lock
00000000 l    df *ABS*	00000000 fopen.c
00000000 l    df *ABS*	00000000 fprintf.c
00000000 l    df *ABS*	00000000 mallocr.c
00000000 l    df *ABS*	00000000 fseek.c
00000000 l    df *ABS*	00000000 fseeko.c
00000000 l    df *ABS*	00000000 fstatr.c
00000000 l    df *ABS*	00000000 fwalk.c
00000000 l    df *ABS*	00000000 impure.c
0001ed80 l     O .rwdata	00000424 impure_data
00000000 l    df *ABS*	00000000 int_errno.c
00000000 l    df *ABS*	00000000 makebuf.c
00000000 l    df *ABS*	00000000 mallocr.c
00000000 l    df *ABS*	00000000 memchr.c
00000000 l    df *ABS*	00000000 memcpy.c
00000000 l    df *ABS*	00000000 memset.c
00000000 l    df *ABS*	00000000 openr.c
00000000 l    df *ABS*	00000000 printf.c
00000000 l    df *ABS*	00000000 putchar.c
00000000 l    df *ABS*	00000000 puts.c
00000000 l    df *ABS*	00000000 refill.c
0000b4dc l     F .text	0000001c lflush
00000000 l    df *ABS*	00000000 sbrkr.c
00000000 l    df *ABS*	00000000 sprintf.c
00000000 l    df *ABS*	00000000 stdio.c
00000000 l    df *ABS*	00000000 strcmp.c
00000000 l    df *ABS*	00000000 strcpy.c
00000000 l    df *ABS*	00000000 strlen.c
00000000 l    df *ABS*	00000000 strstr.c
0000bb24 l     F .text	00000104 critical_factorization
0000bc28 l     F .text	000003b0 two_way_long_needle
00000000 l    df *ABS*	00000000 strtod.c
0000c388 l     F .text	00000064 sulp
0001e9d0 l     O .rodata	00000014 fpinan.2773
0001e9e4 l     O .rodata	00000014 fpi.2737
0001e9f8 l     O .rodata	00000028 tinytens
00000000 l    df *ABS*	00000000 vfprintf.c
0001ea5f l     O .rodata	00000010 zeroes.4389
0001ea6f l     O .rodata	00000010 blanks.4388
00000000 l    df *ABS*	00000000 vfprintf.c
0001ea7f l     O .rodata	00000010 zeroes.4404
0001209c l     F .text	000000bc __sbprintf
0001ea8f l     O .rodata	00000010 blanks.4403
00000000 l    df *ABS*	00000000 writer.c
00000000 l    df *ABS*	00000000 wsetup.c
00000000 l    df *ABS*	00000000 closer.c
00000000 l    df *ABS*	00000000 dtoa.c
00012360 l     F .text	00000228 quorem
00000000 l    df *ABS*	00000000 fclose.c
00000000 l    df *ABS*	00000000 flags.c
00000000 l    df *ABS*	00000000 fvwrite.c
00000000 l    df *ABS*	00000000 gdtoa-gethex.c
00014288 l     F .text	00000100 rshift
00000000 l    df *ABS*	00000000 gdtoa-hexnan.c
00000000 l    df *ABS*	00000000 isattyr.c
00000000 l    df *ABS*	00000000 locale.c
0001f5cc l     O .rwdata	00000020 lc_ctype_charset
0001f5ac l     O .rwdata	00000020 lc_message_charset
0001f5ec l     O .rwdata	00000038 lconv
00000000 l    df *ABS*	00000000 lseekr.c
00000000 l    df *ABS*	00000000 memcmp.c
00000000 l    df *ABS*	00000000 memmove.c
00000000 l    df *ABS*	00000000 mprec.c
0001ebbc l     O .rodata	0000000c p05.2768
00000000 l    df *ABS*	00000000 putc.c
00000000 l    df *ABS*	00000000 readr.c
00000000 l    df *ABS*	00000000 mallocr.c
00000000 l    df *ABS*	00000000 s_fpclassify.c
00000000 l    df *ABS*	00000000 strchr.c
00000000 l    df *ABS*	00000000 strncmp.c
00000000 l    df *ABS*	00000000 vfprintf.c
0001ece0 l     O .rodata	00000010 zeroes.4333
0001ecf0 l     O .rodata	00000010 blanks.4332
00000000 l    df *ABS*	00000000 vfprintf.c
00018198 l     F .text	000000fc __sprint_r.part.0
0001ed00 l     O .rodata	00000010 zeroes.4349
000197d4 l     F .text	000000bc __sbprintf
0001ed10 l     O .rodata	00000010 blanks.4348
00000000 l    df *ABS*	00000000 wbuf.c
00000000 l    df *ABS*	00000000 mallocr.c
00000000 l    df *ABS*	00000000 fputwc.c
00000000 l    df *ABS*	00000000 wcrtomb.c
00000000 l    df *ABS*	00000000 wctomb_r.c
00000000 l    df *ABS*	00000000 libgcc2.c
00000000 l    df *ABS*	00000000 libgcc2.c
00000000 l    df *ABS*	00000000 libgcc2.c
00000000 l    df *ABS*	00000000 fixdfsi.c
00000000 l    df *ABS*	00000000 floatunsidf.c
00000000 l    df *ABS*	00000000 alt_close.c
0001ac10 l     F .text	0000003c alt_get_errno
00000000 l    df *ABS*	00000000 alt_dev.c
0001ad24 l     F .text	0000002c alt_dev_null_write
00000000 l    df *ABS*	00000000 alt_errno.c
00000000 l    df *ABS*	00000000 alt_fcntl.c
0001ad50 l     F .text	0000003c alt_get_errno
00000000 l    df *ABS*	00000000 alt_fstat.c
0001aeb4 l     F .text	0000003c alt_get_errno
00000000 l    df *ABS*	00000000 alt_isatty.c
0001afa8 l     F .text	0000003c alt_get_errno
00000000 l    df *ABS*	00000000 alt_load.c
0001b090 l     F .text	00000068 alt_load_section
00000000 l    df *ABS*	00000000 alt_lseek.c
0001b17c l     F .text	0000003c alt_get_errno
00000000 l    df *ABS*	00000000 alt_main.c
00000000 l    df *ABS*	00000000 alt_malloc_lock.c
00000000 l    df *ABS*	00000000 alt_open.c
0001b358 l     F .text	0000003c alt_get_errno
0001b394 l     F .text	000000ec alt_file_locked
00000000 l    df *ABS*	00000000 alt_read.c
0001b5dc l     F .text	0000003c alt_get_errno
00000000 l    df *ABS*	00000000 alt_release_fd.c
00000000 l    df *ABS*	00000000 alt_sbrk.c
00020934 l     O .rwdata	00000004 heap_end
00000000 l    df *ABS*	00000000 alt_tick.c
00000000 l    df *ABS*	00000000 alt_usleep.c
00000000 l    df *ABS*	00000000 alt_write.c
0001ba24 l     F .text	0000003c alt_get_errno
00000000 l    df *ABS*	00000000 alt_sys_init.c
0001bb60 l     F .text	00000034 alt_dev_reg
0001f7cc l     O .rwdata	00001060 nios_system_jtag_uart
0002082c l     O .rwdata	000000c4 nios_system_wifi_uart0
00000000 l    df *ABS*	00000000 altera_avalon_jtag_uart_fd.c
00000000 l    df *ABS*	00000000 altera_avalon_jtag_uart_init.c
0001be74 l     F .text	0000020c altera_avalon_jtag_uart_irq
0001c080 l     F .text	000000a0 altera_avalon_jtag_uart_timeout
00000000 l    df *ABS*	00000000 altera_avalon_jtag_uart_ioctl.c
00000000 l    df *ABS*	00000000 altera_avalon_jtag_uart_read.c
00000000 l    df *ABS*	00000000 altera_avalon_jtag_uart_write.c
00000000 l    df *ABS*	00000000 altera_avalon_timer_sc.c
0001c6fc l     F .text	00000078 alt_avalon_timer_sc_irq
00000000 l    df *ABS*	00000000 altera_avalon_uart_fd.c
00000000 l    df *ABS*	00000000 altera_avalon_uart_init.c
0001c9ac l     F .text	0000009c altera_avalon_uart_irq
0001ca48 l     F .text	000000e4 altera_avalon_uart_rxirq
0001cb2c l     F .text	00000148 altera_avalon_uart_txirq
00000000 l    df *ABS*	00000000 altera_avalon_uart_read.c
0001ccc8 l     F .text	0000003c alt_get_errno
00000000 l    df *ABS*	00000000 altera_avalon_uart_write.c
0001cee0 l     F .text	0000003c alt_get_errno
00000000 l    df *ABS*	00000000 alt_alarm_start.c
00000000 l    df *ABS*	00000000 alt_busy_sleep.c
00000000 l    df *ABS*	00000000 alt_dcache_flush_all.c
00000000 l    df *ABS*	00000000 alt_dev_llist_insert.c
0001d36c l     F .text	0000003c alt_get_errno
00000000 l    df *ABS*	00000000 alt_do_ctors.c
00000000 l    df *ABS*	00000000 alt_do_dtors.c
00000000 l    df *ABS*	00000000 alt_find_dev.c
00000000 l    df *ABS*	00000000 alt_find_file.c
00000000 l    df *ABS*	00000000 alt_get_fd.c
00000000 l    df *ABS*	00000000 alt_icache_flush_all.c
00000000 l    df *ABS*	00000000 alt_iic.c
00000000 l    df *ABS*	00000000 alt_iic_isr_register.c
00000000 l    df *ABS*	00000000 alt_io_redirect.c
0001da28 l     F .text	000000e4 alt_open_fd
00000000 l    df *ABS*	00000000 alt_irq_vars.c
00000000 l    df *ABS*	00000000 altera_nios2_gen2_irq.c
00000000 l    df *ABS*	00000000 atexit.c
00000000 l    df *ABS*	00000000 exit.c
00000000 l    df *ABS*	00000000 __atexit.c
00000000 l    df *ABS*	00000000 __call_atexit.c
00000000 l    df *ABS*	00000000 alt_exit.c
00022554 g     O .bss	00000004 alt_instruction_exception_handler
0000b3f0 g     F .text	00000018 putchar
000160dc g     F .text	00000074 _mprec_log10
000161c8 g     F .text	0000008c __any_on
00014e34 g     F .text	00000054 _isatty_r
0001ebc8 g     O .rodata	00000028 __mprec_tinytens
0001b294 g     F .text	0000007c alt_main
0000b9fc g     F .text	00000090 strcpy
0000b408 g     F .text	000000c0 _puts_r
0002263c g     O .bss	00000100 alt_irq
00014f64 g     F .text	00000060 _lseek_r
00000420 g     F .text	00000044 ACK_check
00020944 g       *ABS*	00000000 __flash_rwdata_start
000003bc g     F .text	00000064 ACK_single_check
00013d14 g     F .text	000000ac __sflags
00007a28 g     F .text	00000088 .hidden __eqdf2
0002273c g       *ABS*	00000000 __alt_heap_start
00040000 g       *ABS*	00000000 __alt_mem_nios_system_shared_memory
000014e8 g     F .text	00000034 I2C_Write_Light
0000b3ac g     F .text	0000003c printf
00019ccc g     F .text	0000009c _wcrtomb_r
0000b8bc g     F .text	0000005c __sseek
000099c0 g     F .text	00000010 __sinit
00019890 g     F .text	00000140 __swbuf_r
000019cc g     F .text	00000164 MPU9250_initialize
00000ee4 g     F .text	000000c4 esp8266_send_data
00014e88 g     F .text	0000007c _setlocale_r
00009818 g     F .text	00000078 __sfmoreglue
00022600 g     O .bss	0000000c accelerometer_data
0001b334 g     F .text	00000024 __malloc_unlock
0000c3ec g     F .text	000015e4 _strtod_r
00005648 g     F .text	00000440 .hidden __divsf3
00001640 g     F .text	00000030 ReadRegs
00001408 g     F .text	00000030 Light_SetThreshHigh
00015040 g     F .text	0000015c memmove
00000464 g     F .text	0000014c OC_I2C_Write
000099a8 g     F .text	00000018 _cleanup
00003ab0 g     F .text	000004a4 powf
0001519c g     F .text	000000a8 _Balloc
00007ab0 g     F .text	000000dc .hidden __gtdf2
0001db88 g     F .text	00000024 altera_nios2_gen2_irq_init
000091e0 g     F .text	00000010 __errno
000022b4 g     F .text	000000a8 RH_Temp_Init
00000000 g     F .entry	0000000c __reset
00000020 g       *ABS*	00000000 __flash_exceptions_start
0000a41c g     F .text	0000005c _fstat_r
00022520 g     O .bss	00000004 errno
0000b838 g     F .text	00000008 __seofread
00016df8 g     F .text	000013a0 ___svfiprintf_internal_r
00000000 g       *ABS*	00000000 __alt_mem_nios_system_onchip_memory2
00022540 g     O .bss	00000004 alt_argv
000288f0 g       *ABS*	00000000 _gp
000011f0 g     F .text	0000009c Light_Get_ADCData0
0001b9f4 g     F .text	00000030 usleep
000060b4 g     F .text	000004e4 .hidden __subsf3
00001d38 g     F .text	00000094 read_temp
000095dc g     F .text	0000001c fgets
0001f64c g     O .rwdata	00000180 alt_fd_list
00003280 g     F .text	000006c8 Sensor_Report
00002fe0 g     F .text	00000090 check_temp_hm_threshold
0000b3e8 g     F .text	00000008 _putchar_r
00002454 g     F .text	00000010 RH_Temp_Sensor_Init
0001d50c g     F .text	00000090 alt_find_dev
0000b0ac g     F .text	00000148 memcpy
00014bd8 g     F .text	0000025c __hexnan
000002a0 g     F .text	000000b4 oc_i2c_init_ex
00009668 g     F .text	0000000c _cleanup_r
00008de8 g     F .text	000000dc .hidden __floatsidf
0001db0c g     F .text	0000007c alt_io_redirect
00007b8c g     F .text	000000f4 .hidden __ltdf2
0001df60 g       *ABS*	00000000 __DTOR_END__
0000b4c8 g     F .text	00000014 puts
0001dbac g     F .text	0000009c alt_exception_cause_generated_bad_addr
000011a8 g     F .text	00000048 Light_PowerSwitch
00016980 g     F .text	00000074 __fpclassifyd
00016038 g     F .text	000000a4 __ratio
000197b8 g     F .text	0000001c __vfiprintf_internal
0001c278 g     F .text	0000021c altera_avalon_jtag_uart_read
0000b37c g     F .text	00000030 _printf_r
0000509c g     F .text	00000064 .hidden __udivsi3
0001afe4 g     F .text	000000ac isatty
0001ec18 g     O .rodata	000000c8 __mprec_tens
00014f04 g     F .text	0000000c __locale_charset
00005bbc g     F .text	000000c8 .hidden __lesf2
00019eb4 g     F .text	00000074 .hidden __fixunsdfsi
0002252c g     O .bss	00000004 __malloc_top_pad
000018f4 g     F .text	000000d8 calib_mag
00004de8 g     F .text	00000058 __fpclassifyf
00003218 g     F .text	00000068 check_sp_temperature_threshold
00020914 g     O .rwdata	00000004 __mb_cur_max
00014f34 g     F .text	0000000c _localeconv_r
000155d0 g     F .text	0000003c __i2b
00013dc0 g     F .text	000004c8 __sfvwrite_r
00004dd0 g     F .text	00000018 finitef
0000b6cc g     F .text	00000054 _sbrk_r
00004dc0 g     F .text	00000010 fabsf
000163bc g     F .text	00000060 _read_r
0002092c g     O .rwdata	00000004 alt_max_fd
00013c10 g     F .text	000000f0 _fclose_r
00009468 g     F .text	00000030 fflush
00022528 g     O .bss	00000004 __malloc_max_sbrked_mem
0000154c g     F .text	00000030 I2C_Read_Light
00008ec4 g     F .text	00000110 .hidden __extendsfdf2
0002250c g     O .bss	00000004 temperature
000067ac g     F .text	000008ac .hidden __adddf3
00005a88 g     F .text	00000078 .hidden __nesf2
00015de0 g     F .text	0000010c __b2d
0001a524 g     F .text	000005c4 .hidden __umoddi3
0001b1b8 g     F .text	000000dc lseek
00020900 g     O .rwdata	00000004 __fdlib_version
00020904 g     O .rwdata	00000004 _global_impure_ptr
0001641c g     F .text	00000564 _realloc_r
0002273c g       *ABS*	00000000 __bss_end
0001d938 g     F .text	000000f0 alt_iic_isr_register
0001b8ec g     F .text	00000108 alt_tick
00002804 g     F .text	000000c0 th_dump_chip_info
0001eab0 g     O .rodata	00000100 __hexdig
00019f28 g     F .text	000005fc .hidden __udivdi3
00019c28 g     F .text	00000024 _fputwc_r
0001ebf0 g     O .rodata	00000028 __mprec_bigtens
000153b4 g     F .text	00000104 __s2b
0001ab68 g     F .text	000000a8 .hidden __floatunsidf
00015b20 g     F .text	00000060 __mcmp
0001c900 g     F .text	000000ac altera_avalon_uart_init
000099e0 g     F .text	00000018 __fp_lock_all
0001d8ec g     F .text	0000004c alt_ic_irq_enabled
00002464 g     F .text	000000d8 th_Read_Measure_Data
000009ec g     F .text	00000190 OC_I2CL_Write
0001b850 g     F .text	0000009c alt_alarm_stop
00022550 g     O .bss	00000004 alt_irq_active
00009fbc g     F .text	00000444 _fseeko_r
0000146c g     F .text	00000048 Light_GetInterrupt
000005b0 g     F .text	00000038 ACK_judge_for_read
000000fc g     F .exceptions	000000d4 alt_irq_handler
0001f624 g     O .rwdata	00000028 alt_dev_null
0000026c g     F .text	00000018 Write32_Data
00002f78 g     F .text	00000068 check_light_threshold
00002d34 g     F .text	00000244 set_thresh
00004bd4 g     F .text	000001ec rint
00001160 g     F .text	00000048 Light_GetTiming
0001d34c g     F .text	00000020 alt_dcache_flush_all
000154b8 g     F .text	00000068 __hi0bits
0001aae8 g     F .text	00000080 .hidden __fixdfsi
000208f8 g     O .rwdata	00000004 get_time_request
00002164 g     F .text	000000bc getMotion9
0000d9d0 g     F .text	00000018 strtod
00020944 g       *ABS*	00000000 __ram_rwdata_end
00020924 g     O .rwdata	00000008 alt_dev_list
0001ba60 g     F .text	00000100 write
00016254 g     F .text	000000a0 _putc_r
00005b00 g     F .text	000000bc .hidden __gtsf2
0002260c g     O .bss	0000000c calib_data
0001ed80 g       *ABS*	00000000 __ram_rodata_end
0001aef0 g     F .text	000000b8 fstat
00009b44 g     F .text	00000024 fprintf
00007b8c g     F .text	000000f4 .hidden __ledf2
00015898 g     F .text	00000140 __pow5mult
000182ac g     F .text	0000150c ___vfiprintf_internal_r
00022538 g     O .bss	00000004 __nlocale_changed
00005100 g     F .text	00000058 .hidden __umodsi3
0002273c g       *ABS*	00000000 end
00001dcc g     F .text	000000f0 read_mag
0000a400 g     F .text	0000001c fseeko
0001cf1c g     F .text	000001ac altera_avalon_uart_write
00009fa0 g     F .text	0000001c fseek
0001bdb4 g     F .text	000000c0 altera_avalon_jtag_uart_init
000001d0 g     F .exceptions	00000060 alt_instruction_exception_entry
0002251c g     O .bss	00000004 sp_themperature_out
0001df60 g       *ABS*	00000000 __CTOR_LIST__
0002bf20 g       *ABS*	00000000 __alt_stack_pointer
000031b0 g     F .text	00000068 check_gas_cn0395_threshold
0001c774 g     F .text	0000007c alt_avalon_timer_sc_init
0001c850 g     F .text	00000060 altera_avalon_uart_write_fd
0000917c g     F .text	00000064 .hidden __clzsi2
0001c8b0 g     F .text	00000050 altera_avalon_uart_close_fd
0001c494 g     F .text	00000268 altera_avalon_jtag_uart_write
000099d0 g     F .text	00000004 __sfp_lock_acquire
0000afc8 g     F .text	000000e4 memchr
0000fda4 g     F .text	000022dc ___vfprintf_internal_r
0000b720 g     F .text	00000058 _sprintf_r
00009c8c g     F .text	00000310 _free_r
00014f10 g     F .text	00000010 __locale_mb_cur_max
0001ddac g     F .text	00000180 __call_exitprocs
0000235c g     F .text	0000007c RH_Temp_Read_Device_ID
00022534 g     O .bss	00000004 __mlocale_changed
0002090c g     O .rwdata	00000004 __malloc_sbrk_base
00000230 g     F .text	0000003c _start
00022548 g     O .bss	00000004 _alt_tick_rate
0000bfd8 g     F .text	000003b0 strstr
000159d8 g     F .text	00000148 __lshift
000028c4 g     F .text	0000014c get_gppm
0002254c g     O .bss	00000004 _alt_nticks
0001b618 g     F .text	00000104 read
00001608 g     F .text	00000038 ReadReg
0001bbcc g     F .text	00000084 alt_sys_init
00006598 g     F .text	00000124 .hidden __floatsisf
00016c28 g     F .text	000001d0 __ssprint_r
0000b31c g     F .text	00000060 _open_r
0001dc94 g     F .text	00000118 __register_exitproc
0000151c g     F .text	00000030 I2C_Write_Light16
00016b58 g     F .text	000000d0 strncmp
00022618 g     O .bss	0000000c gyroscope_data
00000d84 g     F .text	00000064 set_esp8266_file_blocking
0001560c g     F .text	0000028c __multiply
00022624 g     O .bss	0000000c magnetometer_ASA
0001c120 g     F .text	00000068 altera_avalon_jtag_uart_close
00005158 g     F .text	00000028 .hidden __mulsi3
0001ed80 g       *ABS*	00000000 __ram_rwdata_start
0001df60 g       *ABS*	00000000 __ram_rodata_start
000225d8 g     O .bss	00000028 __malloc_current_mallinfo
00005a88 g     F .text	00000078 .hidden __eqsf2
00015eec g     F .text	0000014c __d2b
00002658 g     F .text	00000044 th_write_register
00001670 g     F .text	000000e4 set_acc_scale
0001bc50 g     F .text	00000060 altera_avalon_jtag_uart_read_fd
0001d6a4 g     F .text	000000c4 alt_get_fd
0001d1f4 g     F .text	00000158 alt_busy_sleep
00003070 g     F .text	00000140 check_temp_ax9_threshold
0001230c g     F .text	00000054 _close_r
00001100 g     F .text	00000018 Light_Init
00022630 g     O .bss	0000000c magnetometer_data
00014fc4 g     F .text	0000007c memcmp
0001bd10 g     F .text	00000050 altera_avalon_jtag_uart_close_fd
0002273c g       *ABS*	00000000 __alt_stack_base
0001bd60 g     F .text	00000054 altera_avalon_jtag_uart_ioctl_fd
000121b8 g     F .text	00000154 __swsetup_r
00000354 g     F .text	00000014 oc_i2c_init
00001118 g     F .text	00000048 Light_GetID
00007058 g     F .text	000009d0 .hidden __divdf3
00009890 g     F .text	00000118 __sfp
00016150 g     F .text	00000078 __copybits
0001f1a4 g     O .rwdata	00000408 __malloc_av_
000099dc g     F .text	00000004 __sinit_lock_release
00007c80 g     F .text	0000086c .hidden __muldf3
00003f54 g     F .text	00000b24 __ieee754_powf
0000b7e4 g     F .text	00000054 __sread
0001d59c g     F .text	00000108 alt_find_file
0001d3a8 g     F .text	000000a4 alt_dev_llist_insert
0000269c g     F .text	0000005c th_read_register
0001b310 g     F .text	00000024 __malloc_lock
00009b1c g     F .text	00000028 _fprintf_r
0001b7a0 g     F .text	000000b0 sbrk
0000dae8 g     F .text	000022bc ___svfprintf_internal_r
00004e48 g     F .text	00000144 scalbnf
0000940c g     F .text	0000005c _fflush_r
000199e8 g     F .text	000000dc _calloc_r
0000253c g     F .text	000000e0 RH_Temp_Sensor_Read
000013d8 g     F .text	00000030 Light_SetThreshLow
00009b04 g     F .text	00000018 fopen
00022508 g       *ABS*	00000000 __bss_start
0000b1f4 g     F .text	00000128 memset
00004a78 g     F .text	00000154 __ieee754_sqrtf
00003948 g     F .text	00000168 main
00022544 g     O .bss	00000004 alt_envp
00022524 g     O .bss	00000004 __malloc_max_total_mem
0001bcb0 g     F .text	00000060 altera_avalon_jtag_uart_write_fd
000199d0 g     F .text	00000018 __swbuf
00005bbc g     F .text	000000c8 .hidden __ltsf2
0000b918 g     F .text	00000008 __sclose
00004bcc g     F .text	00000008 matherr
0002bf20 g       *ABS*	00000000 __alt_heap_limit
00013d00 g     F .text	00000014 fclose
00008fd4 g     F .text	000001a8 .hidden __truncdfsf2
00012588 g     F .text	00001688 _dtoa_r
0000a7bc g     F .text	0000080c _malloc_r
00019e28 g     F .text	00000030 __ascii_wctomb
00020930 g     O .rwdata	00000004 alt_errno
00001328 g     F .text	000000b0 Get_light
0000a478 g     F .text	000000c4 _fwalk
00009498 g     F .text	00000144 _fgets_r
000026f8 g     F .text	0000010c Read_Configuration
000162f4 g     F .text	000000c8 putc
00004fa4 g     F .text	00000084 .hidden __divsi3
00001ebc g     F .text	000002a8 read_all
00000368 g     F .text	00000054 oc_i2c_uninit
00009b68 g     F .text	00000124 _malloc_trim_r
0001df60 g       *ABS*	00000000 __CTOR_END__
00005c84 g     F .text	00000430 .hidden __mulsf3
0000b920 g     F .text	000000dc strcmp
0001df60 g       *ABS*	00000000 __flash_rodata_start
00000fa8 g     F .text	00000044 esp8266_dump_rx
0001df60 g       *ABS*	00000000 __DTOR_LIST__
00000de8 g     F .text	00000008 esp8266_gets
00007a28 g     F .text	00000088 .hidden __nedf2
0001bb94 g     F .text	00000038 alt_irq_init
0001b71c g     F .text	00000084 alt_release_fd
00004f8c g     F .text	00000018 copysignf
0000b778 g     F .text	0000006c sprintf
0001e8bc g     O .rodata	00000100 .hidden __clz_tab
00022530 g     O .bss	00000004 _PathLocale
0000d9e8 g     F .text	00000100 strtof
0001dc48 g     F .text	00000014 atexit
00005b00 g     F .text	000000bc .hidden __gesf2
00012158 g     F .text	00000060 _write_r
00014f40 g     F .text	00000018 setlocale
0000261c g     F .text	0000003c th_reset
00004e40 g     F .text	00000008 nanf
00020908 g     O .rwdata	00000004 _impure_ptr
0002253c g     O .bss	00000004 alt_argc
000091f0 g     F .text	0000021c __sflush_r
0001d4ac g     F .text	00000060 _do_dtors
00014f2c g     F .text	00000008 __locale_cjk_lang
00022508 g     O .bss	00000004 esp8266_file
00009f9c g     F .text	00000004 _fseek_r
0000b4f8 g     F .text	000001d4 __srefill_r
00000020 g       .exceptions	00000000 alt_irq_entry
00015d7c g     F .text	00000064 __ulp
000099f8 g     F .text	00000018 __fp_unlock_all
0000128c g     F .text	0000009c Light_Get_ADCData1
00022510 g     O .bss	00000004 gyro_divider
0002091c g     O .rwdata	00000008 alt_fs_list
00000284 g     F .text	0000001c Read32_Data
00002220 g     F .text	00000094 getMotion6
00001754 g     F .text	000000ec set_gyro_scale
000005e8 g     F .text	000001c8 OC_I2C_Read
00000020 g       *ABS*	00000000 __ram_exceptions_start
00014f58 g     F .text	0000000c localeconv
00000df0 g     F .text	000000f4 esp8266_send_command
0001d788 g     F .text	00000050 alt_ic_isr_register
000014b4 g     F .text	00000034 Light_SetTiming
00020944 g       *ABS*	00000000 _edata
0001c7f0 g     F .text	00000060 altera_avalon_uart_read_fd
000208fc g     O .rwdata	00000004 time_server_domain
0002273c g       *ABS*	00000000 _end
00019ac4 g     F .text	00000164 __fputwc
00000230 g       *ABS*	00000000 __ram_exceptions_end
0001c188 g     F .text	000000f0 altera_avalon_jtag_uart_ioctl
00002a10 g     F .text	00000324 convert_light_lux
00001590 g     F .text	00000078 WriteReg
0001d860 g     F .text	0000008c alt_ic_irq_disable
0000b840 g     F .text	0000007c __swrite
00020910 g     O .rwdata	00000004 __malloc_trim_threshold
000008ac g     F .text	00000140 OC_I2C_Read_Continue
00014f20 g     F .text	0000000c __locale_msgcharset
0001dc5c g     F .text	00000038 exit
0000a53c g     F .text	000000c4 _fwalk_reent
000066bc g     F .text	000000f0 .hidden __floatunsisf
00015b80 g     F .text	000001fc __mdiff
00005028 g     F .text	00000074 .hidden __modsi3
0002bf20 g       *ABS*	00000000 __alt_data_end
00000020 g     F .exceptions	00000000 alt_exception
000099d4 g     F .text	00000004 __sfp_lock_release
00001c34 g     F .text	00000104 read_gyro
0000157c g     F .text	00000014 MPU9250_Init
000023d8 g     F .text	0000007c Write_Configuration
000095f8 g     F .text	00000068 fileno
0001cc74 g     F .text	00000054 altera_avalon_uart_close
00000b7c g     F .text	00000208 OC_I2CL_Read
00009a10 g     F .text	000000f4 _fopen_r
0001df2c g     F .text	00000034 _exit
0001d0c8 g     F .text	0000012c alt_alarm_start
0000a600 g     F .text	000001bc __smakebuf_r
0000ba8c g     F .text	00000098 strlen
0001b480 g     F .text	0000015c open
00000fec g     F .text	00000114 esp8266_init
00007ab0 g     F .text	000000dc .hidden __gedf2
00022514 g     O .bss	00000004 acc_divider
00014388 g     F .text	00000850 __gethex
00020918 g     O .rwdata	00000004 __wctomb
00018294 g     F .text	00000018 __sprint_r
0001d768 g     F .text	00000020 alt_icache_flush_all
000169f4 g     F .text	00000164 strchr
00001b30 g     F .text	00000104 read_acc
00020940 g     O .rwdata	00000004 alt_priority_mask
00001840 g     F .text	000000b4 calib_acc
0001d7d8 g     F .text	00000088 alt_ic_irq_enable
000007b0 g     F .text	000000fc OC_I2C_Write_Addr
00012080 g     F .text	0000001c __vfprintf_internal
0001cd04 g     F .text	000001dc altera_avalon_uart_read
00019e58 g     F .text	0000005c _wctomb_r
000084ec g     F .text	000008fc .hidden __subdf3
0001ad8c g     F .text	00000128 fcntl
00015520 g     F .text	000000b0 __lo0bits
00020938 g     O .rwdata	00000008 alt_alarm_list
0001d44c g     F .text	00000060 _do_ctors
00019d68 g     F .text	000000c0 wcrtomb
0001ac4c g     F .text	000000d8 close
00005180 g     F .text	000004c8 .hidden __addsf3
00001438 g     F .text	00000034 Light_SetInterrupt
0001b0f8 g     F .text	00000084 alt_load
00019c4c g     F .text	00000080 fputwc
000099d8 g     F .text	00000004 __sinit_lock_acquire
0001526c g     F .text	00000148 __multadd
00015244 g     F .text	00000028 _Bfree



Disassembly of section .entry:

00000000 <__reset>:
 * Jump to the _start entry point in the .text section if reset code
 * is allowed or if optimizing for RTL simulation.
 */
#if defined(ALT_ALLOW_CODE_AT_RESET) || defined(ALT_SIM_OPTIMIZE)
    /* Jump to the _start entry point in the .text section. */
    movhi r1, %hi(_start)
   0:	00400034 	movhi	at,0
    ori r1, r1, %lo(_start)
   4:	08408c14 	ori	at,at,560
    jmp r1
   8:	0800683a 	jmp	at
	...

Disassembly of section .exceptions:

00000020 <alt_exception>:

#else /* ALT_EXCEPTION_STACK disabled */
        /* 
         * Reserve space on normal stack for registers about to be pushed.
         */
        addi  sp, sp, -76
  20:	deffed04 	addi	sp,sp,-76
         * documentation for details).
         *
         * Leave a gap in the stack frame at 4(sp) for the muldiv handler to
         * store zero into.
         */
        stw   ra,  0(sp)
  24:	dfc00015 	stw	ra,0(sp)
        stw   r1,   8(sp)
  28:	d8400215 	stw	at,8(sp)
        stw   r2,  12(sp)
  2c:	d8800315 	stw	r2,12(sp)
        stw   r3,  16(sp)
  30:	d8c00415 	stw	r3,16(sp)
        stw   r4,  20(sp)
  34:	d9000515 	stw	r4,20(sp)
        stw   r5,  24(sp)
  38:	d9400615 	stw	r5,24(sp)
        stw   r6,  28(sp)
  3c:	d9800715 	stw	r6,28(sp)
        stw   r7,  32(sp)
  40:	d9c00815 	stw	r7,32(sp)
        rdctl r5, estatus   /* Read early to avoid usage stall */
  44:	000b307a 	rdctl	r5,estatus
        stw   r8,  36(sp)
  48:	da000915 	stw	r8,36(sp)
        stw   r9,  40(sp)
  4c:	da400a15 	stw	r9,40(sp)
        stw   r10, 44(sp)
  50:	da800b15 	stw	r10,44(sp)
        stw   r11, 48(sp)
  54:	dac00c15 	stw	r11,48(sp)
        stw   r12, 52(sp)
  58:	db000d15 	stw	r12,52(sp)
        stw   r13, 56(sp)
  5c:	db400e15 	stw	r13,56(sp)
        stw   r14, 60(sp)
  60:	db800f15 	stw	r14,60(sp)
        stw   r15, 64(sp)
  64:	dbc01015 	stw	r15,64(sp)
        /*
         * ea-4 contains the address of the instruction being executed
         * when the exception occured. For interrupt exceptions, we will
         * will be re-issue the isntruction. Store it in 72(sp)
         */
        stw   r5,  68(sp)  /* estatus */
  68:	d9401115 	stw	r5,68(sp)
        addi  r15, ea, -4  /* instruction that caused exception */
  6c:	ebffff04 	addi	r15,ea,-4
        stw   r15,  72(sp)
  70:	dbc01215 	stw	r15,72(sp)
#else
        /*
         * Test to see if the exception was a software exception or caused 
         * by an external interrupt, and vector accordingly.
         */
        rdctl r4, ipending
  74:	0009313a 	rdctl	r4,ipending
        andi  r2, r5, 1
  78:	2880004c 	andi	r2,r5,1
        beq   r2, zero, .Lnot_irq
  7c:	10000326 	beq	r2,zero,8c <alt_exception+0x6c>
        beq   r4, zero, .Lnot_irq
  80:	20000226 	beq	r4,zero,8c <alt_exception+0x6c>
        /*
         * Now that all necessary registers have been preserved, call 
         * alt_irq_handler() to process the interrupts.
         */

        call alt_irq_handler
  84:	00000fc0 	call	fc <alt_irq_handler>

        .section .exceptions.irqreturn, "xa"

        br    .Lexception_exit
  88:	00000706 	br	a8 <alt_exception+0x88>
         * upon completion, so we write ea (address of instruction *after*
         * the one where the exception occured) into 72(sp). The actual
         * instruction that caused the exception is written in r2, which these
         * handlers will utilize.
         */
        stw ea, 72(sp) /* EA is PC+4 so will skip over instruction causing exception */
  8c:	df401215 	stw	ea,72(sp)
.Lunknown_16bit:
        addi.n r4, r4, 2 /* Need PC+2 to skip over instruction causing exception */
        stw r4, 72(sp)

#else /* CDX is not Enabled and all instructions are 32bits */
        ldw r2, -4(ea) /* Instruction value that caused exception */
  90:	e8bfff17 	ldw	r2,-4(ea)
         * debugger is present) or go into an infinite loop since the
         * handling behavior is undefined; in that case we will not return here.
         */

        /* Load exception-causing address as first argument (r4) */
        addi   r4, ea, -4
  94:	e93fff04 	addi	r4,ea,-4

        /* Call the instruction-exception entry */
        call   alt_instruction_exception_entry
  98:	00001d00 	call	1d0 <alt_instruction_exception_entry>
         * instruction
         *
         * Return code was 0: Skip. The instruction after the exception is
         * already stored in 72(sp).
         */
        bne   r2, r0, .Lexception_exit
  9c:	1000021e 	bne	r2,zero,a8 <alt_exception+0x88>

        /*
         * Otherwise, modify 72(sp) to re-issue the instruction that caused the
         * exception.
         */
        addi  r15, ea, -4  /* instruction that caused exception */
  a0:	ebffff04 	addi	r15,ea,-4
        stw   r15,  72(sp)
  a4:	dbc01215 	stw	r15,72(sp)
        /* 
         * Restore the saved registers, so that all general purpose registers 
         * have been restored to their state at the time the interrupt occured.
         */

        ldw   r5,  68(sp)
  a8:	d9401117 	ldw	r5,68(sp)
        ldw   ea,  72(sp)  /* This becomes the PC once eret is executed */
  ac:	df401217 	ldw	ea,72(sp)
        ldw   ra,   0(sp)
  b0:	dfc00017 	ldw	ra,0(sp)

        wrctl estatus, r5
  b4:	2801707a 	wrctl	estatus,r5

        ldw   r1,   8(sp)
  b8:	d8400217 	ldw	at,8(sp)
        ldw   r2,  12(sp)
  bc:	d8800317 	ldw	r2,12(sp)
        ldw   r3,  16(sp)
  c0:	d8c00417 	ldw	r3,16(sp)
        ldw   r4,  20(sp)
  c4:	d9000517 	ldw	r4,20(sp)
        ldw   r5,  24(sp)
  c8:	d9400617 	ldw	r5,24(sp)
        ldw   r6,  28(sp)
  cc:	d9800717 	ldw	r6,28(sp)
        ldw   r7,  32(sp)
  d0:	d9c00817 	ldw	r7,32(sp)

#if defined(ALT_EXCEPTION_STACK) && defined(ALT_STACK_CHECK)
        ldw   et, %gprel(alt_exception_old_stack_limit)(gp)
#endif

        ldw   r8,  36(sp)
  d4:	da000917 	ldw	r8,36(sp)
        ldw   r9,  40(sp)
  d8:	da400a17 	ldw	r9,40(sp)
        ldw   r10, 44(sp)
  dc:	da800b17 	ldw	r10,44(sp)
        ldw   r11, 48(sp)
  e0:	dac00c17 	ldw	r11,48(sp)
        ldw   r12, 52(sp)
  e4:	db000d17 	ldw	r12,52(sp)
        ldw   r13, 56(sp)
  e8:	db400e17 	ldw	r13,56(sp)
        ldw   r14, 60(sp)
  ec:	db800f17 	ldw	r14,60(sp)
        ldw   r15, 64(sp)
  f0:	dbc01017 	ldw	r15,64(sp)
        stw   et, %gprel(alt_stack_limit_value)(gp)
        stw   zero, %gprel(alt_exception_old_stack_limit)(gp)
#endif /* ALT_STACK_CHECK */
        ldw   sp,  76(sp)
#else /* ALT_EXCEPTION_STACK disabled */
        addi  sp, sp, 76
  f4:	dec01304 	addi	sp,sp,76

        /*
         * Return to the interrupted instruction.
         */

        eret
  f8:	ef80083a 	eret

000000fc <alt_irq_handler>:
 * instruction is present if the macro ALT_CI_INTERRUPT_VECTOR defined.
 */

void alt_irq_handler (void) __attribute__ ((section (".exceptions")));
void alt_irq_handler (void)
{
  fc:	defff904 	addi	sp,sp,-28
 100:	dfc00615 	stw	ra,24(sp)
 104:	df000515 	stw	fp,20(sp)
 108:	df000504 	addi	fp,sp,20
  
  /*
   * Notify the operating system that we are at interrupt level.
   */ 
  
  ALT_OS_INT_ENTER();
 10c:	0001883a 	nop
#ifndef NIOS2_EIC_PRESENT
static ALT_INLINE alt_u32 ALT_ALWAYS_INLINE alt_irq_pending (void)
{
  alt_u32 active;

  NIOS2_READ_IPENDING (active);
 110:	0005313a 	rdctl	r2,ipending
 114:	e0bffe15 	stw	r2,-8(fp)

  return active;
 118:	e0bffe17 	ldw	r2,-8(fp)
   * Consider the case where the high priority interupt is asserted during
   * the interrupt entry sequence for a lower priority interrupt to see why
   * this is the case.
   */

  active = alt_irq_pending ();
 11c:	e0bffb15 	stw	r2,-20(fp)

  do
  {
    i = 0;
 120:	e03ffd15 	stw	zero,-12(fp)
    mask = 1;
 124:	00800044 	movi	r2,1
 128:	e0bffc15 	stw	r2,-16(fp)
     * called to clear the interrupt condition.
     */

    do
    {
      if (active & mask)
 12c:	e0fffb17 	ldw	r3,-20(fp)
 130:	e0bffc17 	ldw	r2,-16(fp)
 134:	1884703a 	and	r2,r3,r2
 138:	10001426 	beq	r2,zero,18c <alt_irq_handler+0x90>
      { 
#ifdef ALT_ENHANCED_INTERRUPT_API_PRESENT
        alt_irq[i].handler(alt_irq[i].context); 
 13c:	008000b4 	movhi	r2,2
 140:	10898f04 	addi	r2,r2,9788
 144:	e0fffd17 	ldw	r3,-12(fp)
 148:	180690fa 	slli	r3,r3,3
 14c:	10c5883a 	add	r2,r2,r3
 150:	10c00017 	ldw	r3,0(r2)
 154:	008000b4 	movhi	r2,2
 158:	10898f04 	addi	r2,r2,9788
 15c:	e13ffd17 	ldw	r4,-12(fp)
 160:	200890fa 	slli	r4,r4,3
 164:	1105883a 	add	r2,r2,r4
 168:	10800104 	addi	r2,r2,4
 16c:	10800017 	ldw	r2,0(r2)
 170:	1009883a 	mov	r4,r2
 174:	183ee83a 	callr	r3
#else
        alt_irq[i].handler(alt_irq[i].context, i); 
#endif
        break;
 178:	0001883a 	nop
#ifndef NIOS2_EIC_PRESENT
static ALT_INLINE alt_u32 ALT_ALWAYS_INLINE alt_irq_pending (void)
{
  alt_u32 active;

  NIOS2_READ_IPENDING (active);
 17c:	0005313a 	rdctl	r2,ipending
 180:	e0bfff15 	stw	r2,-4(fp)

  return active;
 184:	e0bfff17 	ldw	r2,-4(fp)
 188:	00000706 	br	1a8 <alt_irq_handler+0xac>
      }
      mask <<= 1;
 18c:	e0bffc17 	ldw	r2,-16(fp)
 190:	1085883a 	add	r2,r2,r2
 194:	e0bffc15 	stw	r2,-16(fp)
      i++;
 198:	e0bffd17 	ldw	r2,-12(fp)
 19c:	10800044 	addi	r2,r2,1
 1a0:	e0bffd15 	stw	r2,-12(fp)

    } while (1);
 1a4:	003fe106 	br	12c <__alt_mem_nios_system_shared_memory+0xfffc012c>

    active = alt_irq_pending ();
 1a8:	e0bffb15 	stw	r2,-20(fp)
    
  } while (active);
 1ac:	e0bffb17 	ldw	r2,-20(fp)
 1b0:	103fdb1e 	bne	r2,zero,120 <__alt_mem_nios_system_shared_memory+0xfffc0120>

  /*
   * Notify the operating system that interrupt processing is complete.
   */ 

  ALT_OS_INT_EXIT();
 1b4:	0001883a 	nop
}
 1b8:	0001883a 	nop
 1bc:	e037883a 	mov	sp,fp
 1c0:	dfc00117 	ldw	ra,4(sp)
 1c4:	df000017 	ldw	fp,0(sp)
 1c8:	dec00204 	addi	sp,sp,8
 1cc:	f800283a 	ret

000001d0 <alt_instruction_exception_entry>:
 * that handler if it has been registered. Absent a handler, it will
 * break break or hang as discussed below.
 */
int 
alt_instruction_exception_entry (alt_u32 exception_pc)
{
 1d0:	defffb04 	addi	sp,sp,-20
 1d4:	dfc00415 	stw	ra,16(sp)
 1d8:	df000315 	stw	fp,12(sp)
 1dc:	df000304 	addi	fp,sp,12
 1e0:	e13fff15 	stw	r4,-4(fp)
  cause = ( (cause & NIOS2_EXCEPTION_REG_CAUSE_MASK) >>
              NIOS2_EXCEPTION_REG_CAUSE_OFST );

  NIOS2_READ_BADADDR(badaddr);
#else
  cause = NIOS2_EXCEPTION_CAUSE_NOT_PRESENT;
 1e4:	00bfffc4 	movi	r2,-1
 1e8:	e0bffd15 	stw	r2,-12(fp)
  badaddr = 0;
 1ec:	e03ffe15 	stw	zero,-8(fp)
#endif /* NIOS2_HAS_EXTRA_EXCEPTION_INFO */

  if(alt_instruction_exception_handler) {
 1f0:	d0a71917 	ldw	r2,-25500(gp)
 1f4:	10000726 	beq	r2,zero,214 <alt_instruction_exception_entry+0x44>
     * Call handler. Its return value indicates whether the exception-causing
     * instruction should be re-issued. The code that called us,
     * alt_eceptions_entry.S, will look at this value and adjust the ea
     * register as necessary
     */
    return alt_instruction_exception_handler(cause, exception_pc, badaddr);
 1f8:	d0a71917 	ldw	r2,-25500(gp)
 1fc:	e0fffd17 	ldw	r3,-12(fp)
 200:	e1bffe17 	ldw	r6,-8(fp)
 204:	e17fff17 	ldw	r5,-4(fp)
 208:	1809883a 	mov	r4,r3
 20c:	103ee83a 	callr	r2
 210:	00000206 	br	21c <alt_instruction_exception_entry+0x4c>
   *    (a peripheral which negates its interrupt output before its
   *    interrupt handler has been executed will cause spurious interrupts)
   */
  else {
#ifdef NIOS2_HAS_DEBUG_STUB
    NIOS2_BREAK();
 214:	003da03a 	break	0
      ;
#endif /* NIOS2_HAS_DEBUG_STUB */
  }

  /* We should not get here. Remove compiler warning. */
  return NIOS2_EXCEPTION_RETURN_REISSUE_INST;
 218:	0005883a 	mov	r2,zero
}
 21c:	e037883a 	mov	sp,fp
 220:	dfc00117 	ldw	ra,4(sp)
 224:	df000017 	ldw	fp,0(sp)
 228:	dec00204 	addi	sp,sp,8
 22c:	f800283a 	ret

Disassembly of section .text:

00000230 <_start>:

    /*
     * Now that the caches are initialized, set up the stack pointer and global pointer.
     * The values provided by the linker are assumed to be correctly aligned.
     */
    movhi sp, %hi(__alt_stack_pointer)
     230:	06c000b4 	movhi	sp,2
    ori sp, sp, %lo(__alt_stack_pointer)
     234:	deefc814 	ori	sp,sp,48928
    movhi gp, %hi(_gp)
     238:	068000b4 	movhi	gp,2
    ori gp, gp, %lo(_gp)
     23c:	d6a23c14 	ori	gp,gp,35056
 */
#ifndef ALT_SIM_OPTIMIZE
    /* Log that the BSS is about to be cleared. */
    ALT_LOG_PUTS(alt_log_msg_bss)

    movhi r2, %hi(__bss_start)
     240:	008000b4 	movhi	r2,2
    ori r2, r2, %lo(__bss_start)
     244:	10894214 	ori	r2,r2,9480

    movhi r3, %hi(__bss_end)
     248:	00c000b4 	movhi	r3,2
    ori r3, r3, %lo(__bss_end)
     24c:	18c9cf14 	ori	r3,r3,10044

    beq r2, r3, 1f
     250:	10c00326 	beq	r2,r3,260 <_start+0x30>

0:
    stw zero, (r2)
     254:	10000015 	stw	zero,0(r2)
    addi r2, r2, 4
     258:	10800104 	addi	r2,r2,4
    bltu r2, r3, 0b
     25c:	10fffd36 	bltu	r2,r3,254 <__alt_mem_nios_system_shared_memory+0xfffc0254>
     * section aren't defined until alt_load() has been called).
     */
    mov   et, zero
#endif

    call alt_load
     260:	001b0f80 	call	1b0f8 <alt_load>

    /* Log that alt_main is about to be called. */
    ALT_LOG_PUTS(alt_log_msg_alt_main)

    /* Call the C entry point. It should never return. */
    call alt_main
     264:	001b2940 	call	1b294 <alt_main>

00000268 <alt_after_alt_main>:

    /* Wait in infinite loop in case alt_main does return. */
alt_after_alt_main:
    br alt_after_alt_main
     268:	003fff06 	br	268 <__alt_mem_nios_system_shared_memory+0xfffc0268>

0000026c <Write32_Data>:
#define TRUE 1
#define FALSE 0

bool Write32_Data(alt_32 base_address, alt_32 offset_address, alt_32 Data){
	bool bPass;
    IOWR(base_address, offset_address,Data);
     26c:	294b883a 	add	r5,r5,r5
     270:	294b883a 	add	r5,r5,r5
     274:	2909883a 	add	r4,r5,r4
     278:	21800035 	stwio	r6,0(r4)
    bPass=TRUE;
    return bPass;
}
     27c:	00800044 	movi	r2,1
     280:	f800283a 	ret

00000284 <Read32_Data>:



bool  Read32_Data(alt_32 base_address, alt_32 offset_address, alt_32 *pData32){
	bool bPass;
	*pData32 =IORD(base_address ,offset_address  );
     284:	294b883a 	add	r5,r5,r5
     288:	294b883a 	add	r5,r5,r5
     28c:	2909883a 	add	r4,r5,r4
     290:	20c00037 	ldwio	r3,0(r4)
	bPass=TRUE;
    return bPass;
}
     294:	00800044 	movi	r2,1



bool  Read32_Data(alt_32 base_address, alt_32 offset_address, alt_32 *pData32){
	bool bPass;
	*pData32 =IORD(base_address ,offset_address  );
     298:	30c00015 	stw	r3,0(r6)
	bPass=TRUE;
    return bPass;
}
     29c:	f800283a 	ret

000002a0 <oc_i2c_init_ex>:

	return bSuccess;
}

bool  oc_i2c_init_ex(alt_32 i2c_base, alt_32 ref_clk, alt_32 i2c_clk)
{
     2a0:	defffd04 	addi	sp,sp,-12
     2a4:	dc400115 	stw	r17,4(sp)
     2a8:	dc000015 	stw	r16,0(sp)
     2ac:	2823883a 	mov	r17,r5
     2b0:	2021883a 	mov	r16,r4
	const alt_u8 ControlValue = 0x80;

    // I2c sysclock =50M hz
	// i2c scl max 400k
	//scl =sysclock/(prescale*5)
	prescale = (ref_clk/(5*i2c_clk))-1;
     2b4:	01400144 	movi	r5,5
     2b8:	3009883a 	mov	r4,r6

	return bSuccess;
}

bool  oc_i2c_init_ex(alt_32 i2c_base, alt_32 ref_clk, alt_32 i2c_clk)
{
     2bc:	dfc00215 	stw	ra,8(sp)
	const alt_u8 ControlValue = 0x80;

    // I2c sysclock =50M hz
	// i2c scl max 400k
	//scl =sysclock/(prescale*5)
	prescale = (ref_clk/(5*i2c_clk))-1;
     2c0:	00051580 	call	5158 <__mulsi3>
     2c4:	8809883a 	mov	r4,r17
     2c8:	100b883a 	mov	r5,r2
     2cc:	0004fa40 	call	4fa4 <__divsi3>
     2d0:	10bfffc4 	addi	r2,r2,-1
     2d4:	11003fcc 	andi	r4,r2,255
	prescale_low = prescale & 0xFF;
	prescale_high = (prescale >> 8) & 0xFF;

   IOWR(i2c_base, 0, prescale_low);//write low byte of  prescale (reg 0)
     2d8:	81000035 	stwio	r4,0(r16)
     2dc:	1005d23a 	srai	r2,r2,8
   IOWR(i2c_base, 1, prescale_high);//write high byte of prescale (reg 1)
     2e0:	81c00104 	addi	r7,r16,4
     2e4:	10803fcc 	andi	r2,r2,255
     2e8:	38800035 	stwio	r2,0(r7)

   //enable the I2C core, but disable the IRQ
   IOWR( i2c_base, 2, ControlValue);
     2ec:	81800204 	addi	r6,r16,8
     2f0:	01402004 	movi	r5,128
     2f4:	31400035 	stwio	r5,0(r6)


    // check prescale low byte
    if (bSuccess){
    	read_data =IORD(i2c_base, 0);
     2f8:	80c00037 	ldwio	r3,0(r16)
        if( (read_data & 0x00ff) != prescale_low ){
     2fc:	18c03fcc 	andi	r3,r3,255
     300:	20c00926 	beq	r4,r3,328 <oc_i2c_init_ex+0x88>
    }

   if (bSuccess)
       printf("\nI2C core is enabled! \r\n");
   else
       printf("\nI2C core is not enabled successfully! \r\n");
     304:	010000b4 	movhi	r4,2
     308:	2137d804 	addi	r4,r4,-8352
     30c:	000b4c80 	call	b4c8 <puts>
     310:	0005883a 	mov	r2,zero

   return bSuccess;

}
     314:	dfc00217 	ldw	ra,8(sp)
     318:	dc400117 	ldw	r17,4(sp)
     31c:	dc000017 	ldw	r16,0(sp)
     320:	dec00304 	addi	sp,sp,12
     324:	f800283a 	ret
        }
    }

    // check prescale high byte
    if (bSuccess){
    	read_data =IORD(i2c_base, 1);
     328:	38c00037 	ldwio	r3,0(r7)
        if( (read_data & 0x00ff) != prescale_high ){
     32c:	18c03fcc 	andi	r3,r3,255
     330:	10fff41e 	bne	r2,r3,304 <__alt_mem_nios_system_shared_memory+0xfffc0304>
        }
    }

    // check control
    if (bSuccess){
    	read_data =IORD(i2c_base, 2);
     334:	30800037 	ldwio	r2,0(r6)
        if( (read_data & 0x00ff) != ControlValue ){
     338:	10803fcc 	andi	r2,r2,255
     33c:	117ff11e 	bne	r2,r5,304 <__alt_mem_nios_system_shared_memory+0xfffc0304>
            bSuccess = FALSE;
        }
    }

   if (bSuccess)
       printf("\nI2C core is enabled! \r\n");
     340:	010000b4 	movhi	r4,2
     344:	2137e304 	addi	r4,r4,-8308
     348:	000b4c80 	call	b4c8 <puts>
     34c:	00800044 	movi	r2,1
   else
       printf("\nI2C core is not enabled successfully! \r\n");

   return bSuccess;
     350:	003ff006 	br	314 <__alt_mem_nios_system_shared_memory+0xfffc0314>

00000354 <oc_i2c_init>:
bool oc_i2c_init(alt_32 i2c_base){
	bool bSuccess;
	const alt_32 ref_clk = 50*1000*1000; // 50MHz
	const alt_32 i2c_clk = 400*1000; // 400KHz

	bSuccess = oc_i2c_init_ex(i2c_base, ref_clk, i2c_clk);
     354:	018001b4 	movhi	r6,6
     358:	0140bef4 	movhi	r5,763
     35c:	3186a004 	addi	r6,r6,6784
     360:	297c2004 	addi	r5,r5,-3968
     364:	00002a01 	jmpi	2a0 <oc_i2c_init_ex>

00000368 <oc_i2c_uninit>:
   return bSuccess;

}

bool oc_i2c_uninit(alt_32 i2c_base)
{
     368:	deffff04 	addi	sp,sp,-4
     36c:	dfc00015 	stw	ra,0(sp)
	bool bSuccess=TRUE;
	alt_32 read_data;
	const alt_u8 ControlValue = 0x00;

    IOWR( i2c_base, 2, ControlValue);
     370:	21000204 	addi	r4,r4,8
     374:	20000035 	stwio	zero,0(r4)
   	read_data =IORD(i2c_base, 2);
     378:	20800037 	ldwio	r2,0(r4)
	if( (read_data & 0x00ff) != ControlValue ){
     37c:	10803fcc 	andi	r2,r2,255
     380:	1000071e 	bne	r2,zero,3a0 <oc_i2c_uninit+0x38>
            bSuccess = FALSE;
    }

   if (bSuccess)
       printf("\nI2C core  is disabled! \r\n");
     384:	010000b4 	movhi	r4,2
     388:	2137e904 	addi	r4,r4,-8284
     38c:	000b4c80 	call	b4c8 <puts>

}

bool oc_i2c_uninit(alt_32 i2c_base)
{
	bool bSuccess=TRUE;
     390:	00800044 	movi	r2,1
   else
       printf("\nI2C core is failed to disable! \r\n");

   return bSuccess;

}
     394:	dfc00017 	ldw	ra,0(sp)
     398:	dec00104 	addi	sp,sp,4
     39c:	f800283a 	ret
    }

   if (bSuccess)
       printf("\nI2C core  is disabled! \r\n");
   else
       printf("\nI2C core is failed to disable! \r\n");
     3a0:	010000b4 	movhi	r4,2
     3a4:	2137f004 	addi	r4,r4,-8256
     3a8:	000b4c80 	call	b4c8 <puts>
	const alt_u8 ControlValue = 0x00;

    IOWR( i2c_base, 2, ControlValue);
   	read_data =IORD(i2c_base, 2);
	if( (read_data & 0x00ff) != ControlValue ){
            bSuccess = FALSE;
     3ac:	0005883a 	mov	r2,zero
   else
       printf("\nI2C core is failed to disable! \r\n");

   return bSuccess;

}
     3b0:	dfc00017 	ldw	ra,0(sp)
     3b4:	dec00104 	addi	sp,sp,4
     3b8:	f800283a 	ret

000003bc <ACK_single_check>:




bool  ACK_single_check(alt_32 i2c_base)
{
     3bc:	defffe04 	addi	sp,sp,-8
     3c0:	dc000015 	stw	r16,0(sp)
     3c4:	2021883a 	mov	r16,r4
	bool bSuccess=TRUE;
	alt_32 read_data;

    usleep(ACK_SLEEP_TIME);
     3c8:	01003e84 	movi	r4,250




bool  ACK_single_check(alt_32 i2c_base)
{
     3cc:	dfc00115 	stw	ra,4(sp)
	bool bSuccess=TRUE;
	alt_32 read_data;

    usleep(ACK_SLEEP_TIME);
    read_data =IORD(i2c_base, 4);
     3d0:	84000404 	addi	r16,r16,16
bool  ACK_single_check(alt_32 i2c_base)
{
	bool bSuccess=TRUE;
	alt_32 read_data;

    usleep(ACK_SLEEP_TIME);
     3d4:	001b9f40 	call	1b9f4 <usleep>
    read_data =IORD(i2c_base, 4);
     3d8:	80800037 	ldwio	r2,0(r16)
    if(read_data & 0x02)
     3dc:	1080008c 	andi	r2,r2,2
     3e0:	10000526 	beq	r2,zero,3f8 <ACK_single_check+0x3c>
     3e4:	0005883a 	mov	r2,zero
            read_data =IORD(i2c_base, 4);
                if(read_data & 0x80)
                    bSuccess = FALSE;
     }
    return bSuccess;
}
     3e8:	dfc00117 	ldw	ra,4(sp)
     3ec:	dc000017 	ldw	r16,0(sp)
     3f0:	dec00204 	addi	sp,sp,8
     3f4:	f800283a 	ret
    usleep(ACK_SLEEP_TIME);
    read_data =IORD(i2c_base, 4);
    if(read_data & 0x02)
            bSuccess = FALSE;
     if (bSuccess){
            usleep(ACK_SLEEP_TIME);
     3f8:	01003e84 	movi	r4,250
     3fc:	001b9f40 	call	1b9f4 <usleep>
            read_data =IORD(i2c_base, 4);
     400:	80800037 	ldwio	r2,0(r16)
                if(read_data & 0x80)
     404:	1004d1fa 	srli	r2,r2,7
     408:	1080005c 	xori	r2,r2,1
     40c:	1080004c 	andi	r2,r2,1
                    bSuccess = FALSE;
     }
    return bSuccess;
}
     410:	dfc00117 	ldw	ra,4(sp)
     414:	dc000017 	ldw	r16,0(sp)
     418:	dec00204 	addi	sp,sp,8
     41c:	f800283a 	ret

00000420 <ACK_check>:


bool  ACK_check(alt_32 i2c_base){
     420:	defffd04 	addi	sp,sp,-12
     424:	dc400115 	stw	r17,4(sp)
     428:	dc000015 	stw	r16,0(sp)
     42c:	dfc00215 	stw	ra,8(sp)
     430:	2023883a 	mov	r17,r4
     434:	04000284 	movi	r16,10
    bool bSuccess = FALSE;
    int i=0;

    while(!bSuccess && i++ < 10){
        bSuccess = ACK_single_check(i2c_base);
     438:	8809883a 	mov	r4,r17
     43c:	00003bc0 	call	3bc <ACK_single_check>

bool  ACK_check(alt_32 i2c_base){
    bool bSuccess = FALSE;
    int i=0;

    while(!bSuccess && i++ < 10){
     440:	10c03fcc 	andi	r3,r2,255
     444:	843fffc4 	addi	r16,r16,-1
     448:	1800011e 	bne	r3,zero,450 <ACK_check+0x30>
     44c:	803ffa1e 	bne	r16,zero,438 <__alt_mem_nios_system_shared_memory+0xfffc0438>
    //	printf("no ack2 !!!!!!!!!!!!!!!!!!!!, i=%d\r\n", i);

    }

    return bSuccess;
}
     450:	dfc00217 	ldw	ra,8(sp)
     454:	dc400117 	ldw	r17,4(sp)
     458:	dc000017 	ldw	r16,0(sp)
     45c:	dec00304 	addi	sp,sp,12
     460:	f800283a 	ret

00000464 <OC_I2C_Write>:

bool  OC_I2C_Write(alt_32 i2c_base,alt_u8 device_address,alt_u8 sub_address, alt_u8 *pData, int nWriteLength)
{
     464:	defff804 	addi	sp,sp,-32
     468:	dd400515 	stw	r21,20(sp)
     46c:	dd000415 	stw	r20,16(sp)
     470:	dcc00315 	stw	r19,12(sp)
     474:	dc400115 	stw	r17,4(sp)
     478:	dfc00715 	stw	ra,28(sp)
     47c:	dd800615 	stw	r22,24(sp)
     480:	dc800215 	stw	r18,8(sp)
     484:	dc000015 	stw	r16,0(sp)
     488:	2023883a 	mov	r17,r4
     48c:	302b883a 	mov	r21,r6
     490:	3829883a 	mov	r20,r7
#define TRUE 1
#define FALSE 0

bool Write32_Data(alt_32 base_address, alt_32 offset_address, alt_32 Data){
	bool bPass;
    IOWR(base_address, offset_address,Data);
     494:	24c00304 	addi	r19,r4,12
     498:	29403fcc 	andi	r5,r5,255
     49c:	99400035 	stwio	r5,0(r19)
     4a0:	24800404 	addi	r18,r4,16
     4a4:	00802404 	movi	r2,144
     4a8:	90800035 	stwio	r2,0(r18)
     4ac:	04000284 	movi	r16,10
bool  ACK_check(alt_32 i2c_base){
    bool bSuccess = FALSE;
    int i=0;

    while(!bSuccess && i++ < 10){
        bSuccess = ACK_single_check(i2c_base);
     4b0:	8809883a 	mov	r4,r17
     4b4:	00003bc0 	call	3bc <ACK_single_check>

bool  ACK_check(alt_32 i2c_base){
    bool bSuccess = FALSE;
    int i=0;

    while(!bSuccess && i++ < 10){
     4b8:	10803fcc 	andi	r2,r2,255
     4bc:	843fffc4 	addi	r16,r16,-1
     4c0:	10000f1e 	bne	r2,zero,500 <OC_I2C_Write+0x9c>
     4c4:	803ffa1e 	bne	r16,zero,4b0 <__alt_mem_nios_system_shared_memory+0xfffc04b0>
       return FALSE;
   }

   //wait TIP bit go to 0 to end Tx
    if(!ACK_check( i2c_base)){
        printf("OC_I2C_Write error[2]\r\n");
     4c8:	010000b4 	movhi	r4,2
     4cc:	2137f904 	addi	r4,r4,-8220
     4d0:	000b4c80 	call	b4c8 <puts>
        return FALSE;
     4d4:	0005883a 	mov	r2,zero

  // printf("\n receive ACK-data! \n");

     return TRUE;

}
     4d8:	dfc00717 	ldw	ra,28(sp)
     4dc:	dd800617 	ldw	r22,24(sp)
     4e0:	dd400517 	ldw	r21,20(sp)
     4e4:	dd000417 	ldw	r20,16(sp)
     4e8:	dcc00317 	ldw	r19,12(sp)
     4ec:	dc800217 	ldw	r18,8(sp)
     4f0:	dc400117 	ldw	r17,4(sp)
     4f4:	dc000017 	ldw	r16,0(sp)
     4f8:	dec00804 	addi	sp,sp,32
     4fc:	f800283a 	ret
#define TRUE 1
#define FALSE 0

bool Write32_Data(alt_32 base_address, alt_32 offset_address, alt_32 Data){
	bool bPass;
    IOWR(base_address, offset_address,Data);
     500:	ad403fcc 	andi	r21,r21,255
     504:	9d400035 	stwio	r21,0(r19)
     508:	00800404 	movi	r2,16
     50c:	90800035 	stwio	r2,0(r18)
     510:	04000284 	movi	r16,10
bool  ACK_check(alt_32 i2c_base){
    bool bSuccess = FALSE;
    int i=0;

    while(!bSuccess && i++ < 10){
        bSuccess = ACK_single_check(i2c_base);
     514:	8809883a 	mov	r4,r17
     518:	00003bc0 	call	3bc <ACK_single_check>

bool  ACK_check(alt_32 i2c_base){
    bool bSuccess = FALSE;
    int i=0;

    while(!bSuccess && i++ < 10){
     51c:	10803fcc 	andi	r2,r2,255
     520:	843fffc4 	addi	r16,r16,-1
     524:	1000061e 	bne	r2,zero,540 <OC_I2C_Write+0xdc>
     528:	803ffa1e 	bne	r16,zero,514 <__alt_mem_nios_system_shared_memory+0xfffc0514>
        return FALSE;
    }

   //wait TIP bit go to 0 to end Tx
    if(!ACK_check( i2c_base)){
        printf("OC_I2C_Write error[5]\r\n");
     52c:	010000b4 	movhi	r4,2
     530:	2137ff04 	addi	r4,r4,-8196
     534:	000b4c80 	call	b4c8 <puts>
        return FALSE;
     538:	0005883a 	mov	r2,zero
     53c:	003fe606 	br	4d8 <__alt_mem_nios_system_shared_memory+0xfffc04d8>
    }
 //  printf("\n receive ACK-reg address! \n");

#if 1
//        for( i=nWriteLength-1;i>=0;i--){
        for( i=0;i<nWriteLength;i++){
     540:	d8800817 	ldw	r2,32(sp)
     544:	0080140e 	bge	zero,r2,598 <OC_I2C_Write+0x134>
     548:	d8800817 	ldw	r2,32(sp)
#define TRUE 1
#define FALSE 0

bool Write32_Data(alt_32 base_address, alt_32 offset_address, alt_32 Data){
	bool bPass;
    IOWR(base_address, offset_address,Data);
     54c:	05800404 	movi	r22,16
     550:	a0ab883a 	add	r21,r20,r2
     554:	a0800003 	ldbu	r2,0(r20)
     558:	98800035 	stwio	r2,0(r19)
     55c:	95800035 	stwio	r22,0(r18)
     560:	04000284 	movi	r16,10
bool  ACK_check(alt_32 i2c_base){
    bool bSuccess = FALSE;
    int i=0;

    while(!bSuccess && i++ < 10){
        bSuccess = ACK_single_check(i2c_base);
     564:	8809883a 	mov	r4,r17
     568:	00003bc0 	call	3bc <ACK_single_check>

bool  ACK_check(alt_32 i2c_base){
    bool bSuccess = FALSE;
    int i=0;

    while(!bSuccess && i++ < 10){
     56c:	10803fcc 	andi	r2,r2,255
     570:	843fffc4 	addi	r16,r16,-1
     574:	1000061e 	bne	r2,zero,590 <OC_I2C_Write+0x12c>
     578:	803ffa1e 	bne	r16,zero,564 <__alt_mem_nios_system_shared_memory+0xfffc0564>
              return FALSE;
         }

         //wait TIP bit go to 0 to end Tx
          if(!ACK_check( i2c_base)){
              printf("OC_I2C_Write error[8]\r\n");
     57c:	010000b4 	movhi	r4,2
     580:	21380504 	addi	r4,r4,-8172
     584:	000b4c80 	call	b4c8 <puts>
              return FALSE;
     588:	0005883a 	mov	r2,zero
     58c:	003fd206 	br	4d8 <__alt_mem_nios_system_shared_memory+0xfffc04d8>
     590:	a5000044 	addi	r20,r20,1
    }
 //  printf("\n receive ACK-reg address! \n");

#if 1
//        for( i=nWriteLength-1;i>=0;i--){
        for( i=0;i<nWriteLength;i++){
     594:	a57fef1e 	bne	r20,r21,554 <__alt_mem_nios_system_shared_memory+0xfffc0554>
#define TRUE 1
#define FALSE 0

bool Write32_Data(alt_32 base_address, alt_32 offset_address, alt_32 Data){
	bool bPass;
    IOWR(base_address, offset_address,Data);
     598:	00801004 	movi	r2,64
     59c:	90800035 	stwio	r2,0(r18)
         printf("OC_I2C_Write error[9]\r\n");
         return FALSE;
     }
         //Sleep(10);
     //OS_msleep(1);
     usleep(SLEEP_TIME);
     5a0:	01003e84 	movi	r4,250
     5a4:	001b9f40 	call	1b9f4 <usleep>

  // printf("\n receive ACK-data! \n");

     return TRUE;
     5a8:	00800044 	movi	r2,1
     5ac:	003fca06 	br	4d8 <__alt_mem_nios_system_shared_memory+0xfffc04d8>

000005b0 <ACK_judge_for_read>:

}


bool ACK_judge_for_read(alt_32 i2c_base)
{
     5b0:	defffe04 	addi	sp,sp,-8
     5b4:	dc000015 	stw	r16,0(sp)
     5b8:	2021883a 	mov	r16,r4
	bool bSuccess;
    alt_32 this_data;

   // OS_msleep( SLEEP_TIME );
     usleep(ACK_SLEEP_TIME);
     5bc:	01003e84 	movi	r4,250

}


bool ACK_judge_for_read(alt_32 i2c_base)
{
     5c0:	dfc00115 	stw	ra,4(sp)
	bool bSuccess;
    alt_32 this_data;

   // OS_msleep( SLEEP_TIME );
     usleep(ACK_SLEEP_TIME);
     5c4:	001b9f40 	call	1b9f4 <usleep>



bool  Read32_Data(alt_32 base_address, alt_32 offset_address, alt_32 *pData32){
	bool bPass;
	*pData32 =IORD(base_address ,offset_address  );
     5c8:	80800437 	ldwio	r2,16(r16)
        if(this_data & 0x02)
            bSuccess = FALSE;
    }
   //wait the rx ACK signal 0-valid

    return bSuccess;
     5cc:	1004d07a 	srli	r2,r2,1
     5d0:	1080005c 	xori	r2,r2,1

}
     5d4:	1080004c 	andi	r2,r2,1
     5d8:	dfc00117 	ldw	ra,4(sp)
     5dc:	dc000017 	ldw	r16,0(sp)
     5e0:	dec00204 	addi	sp,sp,8
     5e4:	f800283a 	ret

000005e8 <OC_I2C_Read>:





bool  OC_I2C_Read(alt_32 i2c_base,alt_u8 device_address,alt_u8 sub_address, alt_u8 *pData8, int nReadLength){
     5e8:	defff704 	addi	sp,sp,-36
     5ec:	dd400515 	stw	r21,20(sp)
     5f0:	dd400917 	ldw	r21,36(sp)
     5f4:	ddc00715 	stw	r23,28(sp)
     5f8:	dd800615 	stw	r22,24(sp)
     5fc:	dd000415 	stw	r20,16(sp)
     600:	dcc00315 	stw	r19,12(sp)
     604:	dc400115 	stw	r17,4(sp)
     608:	dfc00815 	stw	ra,32(sp)
     60c:	dc800215 	stw	r18,8(sp)
     610:	dc000015 	stw	r16,0(sp)
     614:	2023883a 	mov	r17,r4
     618:	2829883a 	mov	r20,r5
     61c:	302f883a 	mov	r23,r6
     620:	382d883a 	mov	r22,r7
    //BYTE data = 0x0;
    alt_32 Data32;
    int i;

   //set the tx reg audio chip dev address with write bit
   IOWR( i2c_base, 3,device_address);
     624:	24c00304 	addi	r19,r4,12
     628:	28803fcc 	andi	r2,r5,255
     62c:	98800035 	stwio	r2,0(r19)
   //set STA and WR bits(bit7 and bit4)
   IOWR( i2c_base, 4,0x90);
     630:	24800404 	addi	r18,r4,16
     634:	00802404 	movi	r2,144
     638:	90800035 	stwio	r2,0(r18)
     63c:	04000284 	movi	r16,10
bool  ACK_check(alt_32 i2c_base){
    bool bSuccess = FALSE;
    int i=0;

    while(!bSuccess && i++ < 10){
        bSuccess = ACK_single_check(i2c_base);
     640:	8809883a 	mov	r4,r17
     644:	00003bc0 	call	3bc <ACK_single_check>

bool  ACK_check(alt_32 i2c_base){
    bool bSuccess = FALSE;
    int i=0;

    while(!bSuccess && i++ < 10){
     648:	10803fcc 	andi	r2,r2,255
     64c:	843fffc4 	addi	r16,r16,-1
     650:	1000101e 	bne	r2,zero,694 <OC_I2C_Read+0xac>
     654:	803ffa1e 	bne	r16,zero,640 <__alt_mem_nios_system_shared_memory+0xfffc0640>
   IOWR( i2c_base, 3,device_address);
   //set STA and WR bits(bit7 and bit4)
   IOWR( i2c_base, 4,0x90);
   //wait TIP bit go to 0 to end Tx
   if (!ACK_check( i2c_base)){
       printf("OC_I2C_Read error[2]\r\n");
     658:	010000b4 	movhi	r4,2
     65c:	21380b04 	addi	r4,r4,-8148
     660:	000b4c80 	call	b4c8 <puts>
       return FALSE;
     664:	0005883a 	mov	r2,zero
 //  printf(" Read  [%02X] = %02Xh\r\n", sub_address, data);


   return TRUE;

}
     668:	dfc00817 	ldw	ra,32(sp)
     66c:	ddc00717 	ldw	r23,28(sp)
     670:	dd800617 	ldw	r22,24(sp)
     674:	dd400517 	ldw	r21,20(sp)
     678:	dd000417 	ldw	r20,16(sp)
     67c:	dcc00317 	ldw	r19,12(sp)
     680:	dc800217 	ldw	r18,8(sp)
     684:	dc400117 	ldw	r17,4(sp)
     688:	dc000017 	ldw	r16,0(sp)
     68c:	dec00904 	addi	sp,sp,36
     690:	f800283a 	ret
   //wait TIP bit go to 0 to end Tx
   if (!ACK_check( i2c_base)){
       printf("OC_I2C_Read error[2]\r\n");
       return FALSE;
   }
   IOWR(i2c_base, 3,sub_address);
     694:	bdc03fcc 	andi	r23,r23,255
     698:	9dc00035 	stwio	r23,0(r19)

   //set WR bits(bit4)
   IOWR( i2c_base, 4,0x10);
     69c:	00800404 	movi	r2,16
     6a0:	90800035 	stwio	r2,0(r18)
     6a4:	04000284 	movi	r16,10
bool  ACK_check(alt_32 i2c_base){
    bool bSuccess = FALSE;
    int i=0;

    while(!bSuccess && i++ < 10){
        bSuccess = ACK_single_check(i2c_base);
     6a8:	8809883a 	mov	r4,r17
     6ac:	00003bc0 	call	3bc <ACK_single_check>

bool  ACK_check(alt_32 i2c_base){
    bool bSuccess = FALSE;
    int i=0;

    while(!bSuccess && i++ < 10){
     6b0:	10803fcc 	andi	r2,r2,255
     6b4:	843fffc4 	addi	r16,r16,-1
     6b8:	1000061e 	bne	r2,zero,6d4 <OC_I2C_Read+0xec>
     6bc:	803ffa1e 	bne	r16,zero,6a8 <__alt_mem_nios_system_shared_memory+0xfffc06a8>

   //set WR bits(bit4)
   IOWR( i2c_base, 4,0x10);
   //wait TIP bit go to 0 to end Tx
    if (!ACK_check( i2c_base)){
        printf("OC_I2C_Read error[5]\r\n");
     6c0:	010000b4 	movhi	r4,2
     6c4:	21381104 	addi	r4,r4,-8124
     6c8:	000b4c80 	call	b4c8 <puts>
        return FALSE;
     6cc:	0005883a 	mov	r2,zero
     6d0:	003fe506 	br	668 <__alt_mem_nios_system_shared_memory+0xfffc0668>
  // printf("\n read receive ACK-reg address! \n");

   //read
    //set the tx reg audio chip dev address with read bit 1

    IOWR(i2c_base, 3,device_address|0x01);
     6d4:	a5000054 	ori	r20,r20,1
     6d8:	a5003fcc 	andi	r20,r20,255
     6dc:	9d000035 	stwio	r20,0(r19)

   //set STA and WR bits(bit7 and bit4)
    IOWR( i2c_base, 4,0x90);
     6e0:	00802404 	movi	r2,144
     6e4:	90800035 	stwio	r2,0(r18)
     6e8:	04000284 	movi	r16,10
bool  ACK_check(alt_32 i2c_base){
    bool bSuccess = FALSE;
    int i=0;

    while(!bSuccess && i++ < 10){
        bSuccess = ACK_single_check(i2c_base);
     6ec:	8809883a 	mov	r4,r17
     6f0:	00003bc0 	call	3bc <ACK_single_check>

bool  ACK_check(alt_32 i2c_base){
    bool bSuccess = FALSE;
    int i=0;

    while(!bSuccess && i++ < 10){
     6f4:	10803fcc 	andi	r2,r2,255
     6f8:	843fffc4 	addi	r16,r16,-1
     6fc:	1000061e 	bne	r2,zero,718 <OC_I2C_Read+0x130>
     700:	803ffa1e 	bne	r16,zero,6ec <__alt_mem_nios_system_shared_memory+0xfffc06ec>
   //set STA and WR bits(bit7 and bit4)
    IOWR( i2c_base, 4,0x90);

   //wait TIP bit go to 0 to end Tx
    if (!ACK_check( i2c_base)){
        printf("OC_I2C_Read error[8]\r\n");
     704:	010000b4 	movhi	r4,2
     708:	21381704 	addi	r4,r4,-8100
     70c:	000b4c80 	call	b4c8 <puts>
        return FALSE;
     710:	0005883a 	mov	r2,zero
     714:	003fd406 	br	668 <__alt_mem_nios_system_shared_memory+0xfffc0668>
    }

    for(i=0;i<nReadLength;i++){
     718:	05401f0e 	bge	zero,r21,798 <OC_I2C_Read+0x1b0>
     71c:	b021883a 	mov	r16,r22
     720:	002f883a 	mov	r23,zero
  // printf("\n read receive ACK-device address(read)! \n");
   //set the RD and ACK bit(bit5 and bit3)
    	IOWR( i2c_base, 4,((i+1) == nReadLength)?0x28:0x20);
     724:	05000804 	movi	r20,32
     728:	bc400044 	addi	r17,r23,1
     72c:	ac401026 	beq	r21,r17,770 <OC_I2C_Read+0x188>
     730:	95000035 	stwio	r20,0(r18)
{
	bool bSuccess;
    alt_32 this_data;

   // OS_msleep( SLEEP_TIME );
     usleep(ACK_SLEEP_TIME);
     734:	01003e84 	movi	r4,250
     738:	001b9f40 	call	1b9f4 <usleep>



bool  Read32_Data(alt_32 base_address, alt_32 offset_address, alt_32 *pData32){
	bool bPass;
	*pData32 =IORD(base_address ,offset_address  );
     73c:	90800037 	ldwio	r2,0(r18)
//   {
//      this_data =  Read32_Data ( hPCIe, i2c_base, 4);
//   }
    bSuccess =  Read32_Data ( i2c_base, 4, &this_data);
    if (bSuccess){
        if(this_data & 0x02)
     740:	1080008c 	andi	r2,r2,2
     744:	10000526 	beq	r2,zero,75c <OC_I2C_Read+0x174>
  // printf("\n read receive ACK-device address(read)! \n");
   //set the RD and ACK bit(bit5 and bit3)
    	IOWR( i2c_base, 4,((i+1) == nReadLength)?0x28:0x20);

        if (!ACK_judge_for_read( i2c_base)){
            printf("OC_I2C_Read error[10]\r\n");
     748:	010000b4 	movhi	r4,2
     74c:	21381d04 	addi	r4,r4,-8076
     750:	000b4c80 	call	b4c8 <puts>
            return FALSE;
     754:	0005883a 	mov	r2,zero
     758:	003fc306 	br	668 <__alt_mem_nios_system_shared_memory+0xfffc0668>
        }
   // printf("\n read receive ACK-device address(read)! \n");

        Data32=IORD( i2c_base, 3);
     75c:	98800037 	ldwio	r2,0(r19)
//        printf("Data32_%d: %d\n", i, Data32);
        *(pData8+i) =  Data32 & 0xff;
     760:	80800005 	stb	r2,0(r16)
     764:	882f883a 	mov	r23,r17
     768:	84000044 	addi	r16,r16,1
     76c:	003fee06 	br	728 <__alt_mem_nios_system_shared_memory+0xfffc0728>
    }

    for(i=0;i<nReadLength;i++){
  // printf("\n read receive ACK-device address(read)! \n");
   //set the RD and ACK bit(bit5 and bit3)
    	IOWR( i2c_base, 4,((i+1) == nReadLength)?0x28:0x20);
     770:	00800a04 	movi	r2,40
     774:	90800035 	stwio	r2,0(r18)
{
	bool bSuccess;
    alt_32 this_data;

   // OS_msleep( SLEEP_TIME );
     usleep(ACK_SLEEP_TIME);
     778:	01003e84 	movi	r4,250
     77c:	001b9f40 	call	1b9f4 <usleep>



bool  Read32_Data(alt_32 base_address, alt_32 offset_address, alt_32 *pData32){
	bool bPass;
	*pData32 =IORD(base_address ,offset_address  );
     780:	90800037 	ldwio	r2,0(r18)
//   {
//      this_data =  Read32_Data ( hPCIe, i2c_base, 4);
//   }
    bSuccess =  Read32_Data ( i2c_base, 4, &this_data);
    if (bSuccess){
        if(this_data & 0x02)
     784:	1080008c 	andi	r2,r2,2
     788:	103fef1e 	bne	r2,zero,748 <__alt_mem_nios_system_shared_memory+0xfffc0748>
            printf("OC_I2C_Read error[10]\r\n");
            return FALSE;
        }
   // printf("\n read receive ACK-device address(read)! \n");

        Data32=IORD( i2c_base, 3);
     78c:	98800037 	ldwio	r2,0(r19)
//        printf("Data32_%d: %d\n", i, Data32);
        *(pData8+i) =  Data32 & 0xff;
     790:	b5ed883a 	add	r22,r22,r23
     794:	b0800005 	stb	r2,0(r22)
    }

    IOWR( i2c_base, 4,0x40);
     798:	00801004 	movi	r2,64
     79c:	90800035 	stwio	r2,0(r18)

  // Sleep(10);
   //OS_msleep(1);
    usleep(SLEEP_TIME);
     7a0:	01003e84 	movi	r4,250
     7a4:	001b9f40 	call	1b9f4 <usleep>
 //  printf(" Read  [%02X] = %02Xh\r\n", sub_address, data);


   return TRUE;
     7a8:	00800044 	movi	r2,1
     7ac:	003fae06 	br	668 <__alt_mem_nios_system_shared_memory+0xfffc0668>

000007b0 <OC_I2C_Write_Addr>:

}

bool  OC_I2C_Write_Addr(alt_32 i2c_base,alt_u8 device_address,alt_u8 sub_address, bool bStop){
     7b0:	defff904 	addi	sp,sp,-28
     7b4:	dd400515 	stw	r21,20(sp)
     7b8:	dd000415 	stw	r20,16(sp)
     7bc:	dc800215 	stw	r18,8(sp)
     7c0:	dc400115 	stw	r17,4(sp)
     7c4:	dfc00615 	stw	ra,24(sp)
     7c8:	dcc00315 	stw	r19,12(sp)
     7cc:	dc000015 	stw	r16,0(sp)
     7d0:	2023883a 	mov	r17,r4
     7d4:	3025883a 	mov	r18,r6
     7d8:	3829883a 	mov	r20,r7
    //BYTE data = 0x0;
    alt_32 Data32;
    int i;

   //set the tx reg audio chip dev address with write bit
   IOWR( i2c_base, 3,device_address);
     7dc:	25400304 	addi	r21,r4,12
     7e0:	29403fcc 	andi	r5,r5,255
     7e4:	a9400035 	stwio	r5,0(r21)
   //set STA and WR bits(bit7 and bit4)
   IOWR( i2c_base, 4,0x90);
     7e8:	24c00404 	addi	r19,r4,16
     7ec:	00802404 	movi	r2,144
     7f0:	98800035 	stwio	r2,0(r19)
     7f4:	04000284 	movi	r16,10
bool  ACK_check(alt_32 i2c_base){
    bool bSuccess = FALSE;
    int i=0;

    while(!bSuccess && i++ < 10){
        bSuccess = ACK_single_check(i2c_base);
     7f8:	8809883a 	mov	r4,r17
     7fc:	00003bc0 	call	3bc <ACK_single_check>

bool  ACK_check(alt_32 i2c_base){
    bool bSuccess = FALSE;
    int i=0;

    while(!bSuccess && i++ < 10){
     800:	10803fcc 	andi	r2,r2,255
     804:	843fffc4 	addi	r16,r16,-1
     808:	10000e1e 	bne	r2,zero,844 <OC_I2C_Write_Addr+0x94>
     80c:	803ffa1e 	bne	r16,zero,7f8 <__alt_mem_nios_system_shared_memory+0xfffc07f8>
   IOWR( i2c_base, 3,device_address);
   //set STA and WR bits(bit7 and bit4)
   IOWR( i2c_base, 4,0x90);
   //wait TIP bit go to 0 to end Tx
   if (!ACK_check( i2c_base)){
       printf("OC_I2C_Read error[2]\r\n");
     810:	010000b4 	movhi	r4,2
     814:	21380b04 	addi	r4,r4,-8148
     818:	000b4c80 	call	b4c8 <puts>
       return FALSE;
     81c:	0005883a 	mov	r2,zero
        usleep(SLEEP_TIME);
    }

   return TRUE;

}
     820:	dfc00617 	ldw	ra,24(sp)
     824:	dd400517 	ldw	r21,20(sp)
     828:	dd000417 	ldw	r20,16(sp)
     82c:	dcc00317 	ldw	r19,12(sp)
     830:	dc800217 	ldw	r18,8(sp)
     834:	dc400117 	ldw	r17,4(sp)
     838:	dc000017 	ldw	r16,0(sp)
     83c:	dec00704 	addi	sp,sp,28
     840:	f800283a 	ret
   //wait TIP bit go to 0 to end Tx
   if (!ACK_check( i2c_base)){
       printf("OC_I2C_Read error[2]\r\n");
       return FALSE;
   }
   IOWR(i2c_base, 3,sub_address);
     844:	94803fcc 	andi	r18,r18,255
     848:	ac800035 	stwio	r18,0(r21)

   //set WR bits(bit4)
   IOWR( i2c_base, 4,0x10);
     84c:	00800404 	movi	r2,16
     850:	98800035 	stwio	r2,0(r19)
     854:	04000284 	movi	r16,10
bool  ACK_check(alt_32 i2c_base){
    bool bSuccess = FALSE;
    int i=0;

    while(!bSuccess && i++ < 10){
        bSuccess = ACK_single_check(i2c_base);
     858:	8809883a 	mov	r4,r17
     85c:	00003bc0 	call	3bc <ACK_single_check>

bool  ACK_check(alt_32 i2c_base){
    bool bSuccess = FALSE;
    int i=0;

    while(!bSuccess && i++ < 10){
     860:	10803fcc 	andi	r2,r2,255
     864:	843fffc4 	addi	r16,r16,-1
     868:	1000061e 	bne	r2,zero,884 <OC_I2C_Write_Addr+0xd4>
     86c:	803ffa1e 	bne	r16,zero,858 <__alt_mem_nios_system_shared_memory+0xfffc0858>

   //set WR bits(bit4)
   IOWR( i2c_base, 4,0x10);
   //wait TIP bit go to 0 to end Tx
    if (!ACK_check( i2c_base)){
        printf("OC_I2C_Read error[5]\r\n");
     870:	010000b4 	movhi	r4,2
     874:	21381104 	addi	r4,r4,-8124
     878:	000b4c80 	call	b4c8 <puts>
        return FALSE;
     87c:	0005883a 	mov	r2,zero
     880:	003fe706 	br	820 <__alt_mem_nios_system_shared_memory+0xfffc0820>
    }

    if (bStop){
     884:	a5003fcc 	andi	r20,r20,255
     888:	a000021e 	bne	r20,zero,894 <OC_I2C_Write_Addr+0xe4>
        IOWR( i2c_base, 4,0x40);
        usleep(SLEEP_TIME);
    }

   return TRUE;
     88c:	00800044 	movi	r2,1
     890:	003fe306 	br	820 <__alt_mem_nios_system_shared_memory+0xfffc0820>
        printf("OC_I2C_Read error[5]\r\n");
        return FALSE;
    }

    if (bStop){
        IOWR( i2c_base, 4,0x40);
     894:	00801004 	movi	r2,64
     898:	98800035 	stwio	r2,0(r19)
        usleep(SLEEP_TIME);
     89c:	01003e84 	movi	r4,250
     8a0:	001b9f40 	call	1b9f4 <usleep>
    }

   return TRUE;
     8a4:	00800044 	movi	r2,1
     8a8:	003fdd06 	br	820 <__alt_mem_nios_system_shared_memory+0xfffc0820>

000008ac <OC_I2C_Read_Continue>:

}



bool  OC_I2C_Read_Continue(alt_32 i2c_base,alt_u8 device_address, alt_u8 *pData8, int nReadLength){
     8ac:	defff704 	addi	sp,sp,-36
	int i;
	alt_u32 Data32;

    IOWR(i2c_base, 3,device_address|0x01);
     8b0:	29400054 	ori	r5,r5,1

}



bool  OC_I2C_Read_Continue(alt_32 i2c_base,alt_u8 device_address, alt_u8 *pData8, int nReadLength){
     8b4:	dd400515 	stw	r21,20(sp)
     8b8:	dd000415 	stw	r20,16(sp)
     8bc:	dcc00315 	stw	r19,12(sp)
     8c0:	dc800215 	stw	r18,8(sp)
     8c4:	dfc00815 	stw	ra,32(sp)
     8c8:	ddc00715 	stw	r23,28(sp)
     8cc:	dd800615 	stw	r22,24(sp)
     8d0:	dc400115 	stw	r17,4(sp)
     8d4:	dc000015 	stw	r16,0(sp)
     8d8:	202b883a 	mov	r21,r4
     8dc:	3029883a 	mov	r20,r6
     8e0:	3827883a 	mov	r19,r7
	int i;
	alt_u32 Data32;

    IOWR(i2c_base, 3,device_address|0x01);
     8e4:	24800304 	addi	r18,r4,12
     8e8:	29403fcc 	andi	r5,r5,255
     8ec:	91400035 	stwio	r5,0(r18)

   //set STA and WR bits(bit7 and bit4)
    IOWR( i2c_base, 4,0x90);
     8f0:	24400404 	addi	r17,r4,16
     8f4:	00802404 	movi	r2,144
     8f8:	88800035 	stwio	r2,0(r17)
     8fc:	04000284 	movi	r16,10
bool  ACK_check(alt_32 i2c_base){
    bool bSuccess = FALSE;
    int i=0;

    while(!bSuccess && i++ < 10){
        bSuccess = ACK_single_check(i2c_base);
     900:	a809883a 	mov	r4,r21
     904:	00003bc0 	call	3bc <ACK_single_check>

bool  ACK_check(alt_32 i2c_base){
    bool bSuccess = FALSE;
    int i=0;

    while(!bSuccess && i++ < 10){
     908:	10803fcc 	andi	r2,r2,255
     90c:	843fffc4 	addi	r16,r16,-1
     910:	1000101e 	bne	r2,zero,954 <OC_I2C_Read_Continue+0xa8>
     914:	803ffa1e 	bne	r16,zero,900 <__alt_mem_nios_system_shared_memory+0xfffc0900>
   //set STA and WR bits(bit7 and bit4)
    IOWR( i2c_base, 4,0x90);
//usleep(5*1000);
   //wait TIP bit go to 0 to end Tx
    if (!ACK_check( i2c_base)){
        printf("OC_I2C_Read error[8]\r\n");
     918:	010000b4 	movhi	r4,2
     91c:	21381704 	addi	r4,r4,-8100
     920:	000b4c80 	call	b4c8 <puts>
        return FALSE;
     924:	0005883a 	mov	r2,zero
 //  printf(" Read  [%02X] = %02Xh\r\n", sub_address, data);


   return TRUE;

}
     928:	dfc00817 	ldw	ra,32(sp)
     92c:	ddc00717 	ldw	r23,28(sp)
     930:	dd800617 	ldw	r22,24(sp)
     934:	dd400517 	ldw	r21,20(sp)
     938:	dd000417 	ldw	r20,16(sp)
     93c:	dcc00317 	ldw	r19,12(sp)
     940:	dc800217 	ldw	r18,8(sp)
     944:	dc400117 	ldw	r17,4(sp)
     948:	dc000017 	ldw	r16,0(sp)
     94c:	dec00904 	addi	sp,sp,36
     950:	f800283a 	ret
    if (!ACK_check( i2c_base)){
        printf("OC_I2C_Read error[8]\r\n");
        return FALSE;
    }

    for(i=0;i<nReadLength;i++){
     954:	04c01f0e 	bge	zero,r19,9d4 <OC_I2C_Read_Continue+0x128>
     958:	a021883a 	mov	r16,r20
     95c:	002f883a 	mov	r23,zero
  // printf("\n read receive ACK-device address(read)! \n");
   //set the RD and ACK bit(bit5 and bit3)
    	IOWR( i2c_base, 4,((i+1) == nReadLength)?0x28:0x20);
     960:	05800804 	movi	r22,32
     964:	bd400044 	addi	r21,r23,1
     968:	9d401026 	beq	r19,r21,9ac <OC_I2C_Read_Continue+0x100>
     96c:	8d800035 	stwio	r22,0(r17)
{
	bool bSuccess;
    alt_32 this_data;

   // OS_msleep( SLEEP_TIME );
     usleep(ACK_SLEEP_TIME);
     970:	01003e84 	movi	r4,250
     974:	001b9f40 	call	1b9f4 <usleep>



bool  Read32_Data(alt_32 base_address, alt_32 offset_address, alt_32 *pData32){
	bool bPass;
	*pData32 =IORD(base_address ,offset_address  );
     978:	88800037 	ldwio	r2,0(r17)
//   {
//      this_data =  Read32_Data ( hPCIe, i2c_base, 4);
//   }
    bSuccess =  Read32_Data ( i2c_base, 4, &this_data);
    if (bSuccess){
        if(this_data & 0x02)
     97c:	1080008c 	andi	r2,r2,2
     980:	10000526 	beq	r2,zero,998 <OC_I2C_Read_Continue+0xec>
  // printf("\n read receive ACK-device address(read)! \n");
   //set the RD and ACK bit(bit5 and bit3)
    	IOWR( i2c_base, 4,((i+1) == nReadLength)?0x28:0x20);

        if (!ACK_judge_for_read( i2c_base)){
            printf("OC_I2C_Read error[10]\r\n");
     984:	010000b4 	movhi	r4,2
     988:	21381d04 	addi	r4,r4,-8076
     98c:	000b4c80 	call	b4c8 <puts>
            return FALSE;
     990:	0005883a 	mov	r2,zero
     994:	003fe406 	br	928 <__alt_mem_nios_system_shared_memory+0xfffc0928>
        }
   // printf("\n read receive ACK-device address(read)! \n");

        Data32=IORD( i2c_base, 3);
     998:	90800037 	ldwio	r2,0(r18)
        *(pData8+i) =  Data32 & 0xff;
     99c:	80800005 	stb	r2,0(r16)
     9a0:	a82f883a 	mov	r23,r21
     9a4:	84000044 	addi	r16,r16,1
     9a8:	003fee06 	br	964 <__alt_mem_nios_system_shared_memory+0xfffc0964>
    }

    for(i=0;i<nReadLength;i++){
  // printf("\n read receive ACK-device address(read)! \n");
   //set the RD and ACK bit(bit5 and bit3)
    	IOWR( i2c_base, 4,((i+1) == nReadLength)?0x28:0x20);
     9ac:	00800a04 	movi	r2,40
     9b0:	88800035 	stwio	r2,0(r17)
{
	bool bSuccess;
    alt_32 this_data;

   // OS_msleep( SLEEP_TIME );
     usleep(ACK_SLEEP_TIME);
     9b4:	01003e84 	movi	r4,250
     9b8:	001b9f40 	call	1b9f4 <usleep>



bool  Read32_Data(alt_32 base_address, alt_32 offset_address, alt_32 *pData32){
	bool bPass;
	*pData32 =IORD(base_address ,offset_address  );
     9bc:	88800037 	ldwio	r2,0(r17)
//   {
//      this_data =  Read32_Data ( hPCIe, i2c_base, 4);
//   }
    bSuccess =  Read32_Data ( i2c_base, 4, &this_data);
    if (bSuccess){
        if(this_data & 0x02)
     9c0:	1080008c 	andi	r2,r2,2
     9c4:	103fef1e 	bne	r2,zero,984 <__alt_mem_nios_system_shared_memory+0xfffc0984>
            printf("OC_I2C_Read error[10]\r\n");
            return FALSE;
        }
   // printf("\n read receive ACK-device address(read)! \n");

        Data32=IORD( i2c_base, 3);
     9c8:	90800037 	ldwio	r2,0(r18)
        *(pData8+i) =  Data32 & 0xff;
     9cc:	a5e9883a 	add	r20,r20,r23
     9d0:	a0800005 	stb	r2,0(r20)
    }

    IOWR( i2c_base, 4,0x40);
     9d4:	00801004 	movi	r2,64
     9d8:	88800035 	stwio	r2,0(r17)

  // Sleep(10);
   //OS_msleep(1);
    usleep(SLEEP_TIME);
     9dc:	01003e84 	movi	r4,250
     9e0:	001b9f40 	call	1b9f4 <usleep>
 //  printf(" Read  [%02X] = %02Xh\r\n", sub_address, data);


   return TRUE;
     9e4:	00800044 	movi	r2,1
     9e8:	003fcf06 	br	928 <__alt_mem_nios_system_shared_memory+0xfffc0928>

000009ec <OC_I2CL_Write>:
}


//  size > 2Kb
bool  OC_I2CL_Write(alt_32 i2c_base,alt_u8 device_address,alt_u16 sub_address,alt_u8 *pData, int nWriteLength)
    {
     9ec:	defff804 	addi	sp,sp,-32
     9f0:	dd400515 	stw	r21,20(sp)
     9f4:	dd000415 	stw	r20,16(sp)
     9f8:	dcc00315 	stw	r19,12(sp)
     9fc:	dc400115 	stw	r17,4(sp)
     a00:	dfc00715 	stw	ra,28(sp)
     a04:	dd800615 	stw	r22,24(sp)
     a08:	dc800215 	stw	r18,8(sp)
     a0c:	dc000015 	stw	r16,0(sp)
     a10:	2023883a 	mov	r17,r4
     a14:	302b883a 	mov	r21,r6
     a18:	3829883a 	mov	r20,r7
#define TRUE 1
#define FALSE 0

bool Write32_Data(alt_32 base_address, alt_32 offset_address, alt_32 Data){
	bool bPass;
    IOWR(base_address, offset_address,Data);
     a1c:	24c00304 	addi	r19,r4,12
     a20:	29403fcc 	andi	r5,r5,255
     a24:	99400035 	stwio	r5,0(r19)
     a28:	24800404 	addi	r18,r4,16
     a2c:	00802404 	movi	r2,144
     a30:	90800035 	stwio	r2,0(r18)
     a34:	04000284 	movi	r16,10
bool  ACK_check(alt_32 i2c_base){
    bool bSuccess = FALSE;
    int i=0;

    while(!bSuccess && i++ < 10){
        bSuccess = ACK_single_check(i2c_base);
     a38:	8809883a 	mov	r4,r17
     a3c:	00003bc0 	call	3bc <ACK_single_check>

bool  ACK_check(alt_32 i2c_base){
    bool bSuccess = FALSE;
    int i=0;

    while(!bSuccess && i++ < 10){
     a40:	10803fcc 	andi	r2,r2,255
     a44:	843fffc4 	addi	r16,r16,-1
     a48:	10000f1e 	bne	r2,zero,a88 <OC_I2CL_Write+0x9c>
     a4c:	803ffa1e 	bne	r16,zero,a38 <__alt_mem_nios_system_shared_memory+0xfffc0a38>
   if (!Write32_Data( i2c_base, 4,0x90))//0x90
       return FALSE;

   //wait TIP bit go to 0 to end Tx
    if(!ACK_check( i2c_base)){
        printf("OC_I2CL_Write error[0]\r\n");
     a50:	010000b4 	movhi	r4,2
     a54:	21382304 	addi	r4,r4,-8052
     a58:	000b4c80 	call	b4c8 <puts>
        return FALSE;
     a5c:	0005883a 	mov	r2,zero
     //OS_msleep(1);
      usleep(SLEEP_TIME);
  //  printf("\n receive ACK-data! \n");

     return TRUE;
}
     a60:	dfc00717 	ldw	ra,28(sp)
     a64:	dd800617 	ldw	r22,24(sp)
     a68:	dd400517 	ldw	r21,20(sp)
     a6c:	dd000417 	ldw	r20,16(sp)
     a70:	dcc00317 	ldw	r19,12(sp)
     a74:	dc800217 	ldw	r18,8(sp)
     a78:	dc400117 	ldw	r17,4(sp)
     a7c:	dc000017 	ldw	r16,0(sp)
     a80:	dec00804 	addi	sp,sp,32
     a84:	f800283a 	ret
#define TRUE 1
#define FALSE 0

bool Write32_Data(alt_32 base_address, alt_32 offset_address, alt_32 Data){
	bool bPass;
    IOWR(base_address, offset_address,Data);
     a88:	a8bfffcc 	andi	r2,r21,65535
     a8c:	1004d23a 	srli	r2,r2,8
     a90:	98800035 	stwio	r2,0(r19)
     a94:	00800404 	movi	r2,16
     a98:	90800035 	stwio	r2,0(r18)
     a9c:	04000284 	movi	r16,10
bool  ACK_check(alt_32 i2c_base){
    bool bSuccess = FALSE;
    int i=0;

    while(!bSuccess && i++ < 10){
        bSuccess = ACK_single_check(i2c_base);
     aa0:	8809883a 	mov	r4,r17
     aa4:	00003bc0 	call	3bc <ACK_single_check>

bool  ACK_check(alt_32 i2c_base){
    bool bSuccess = FALSE;
    int i=0;

    while(!bSuccess && i++ < 10){
     aa8:	10803fcc 	andi	r2,r2,255
     aac:	843fffc4 	addi	r16,r16,-1
     ab0:	1000061e 	bne	r2,zero,acc <OC_I2CL_Write+0xe0>
     ab4:	803ffa1e 	bne	r16,zero,aa0 <__alt_mem_nios_system_shared_memory+0xfffc0aa0>
    if (!Write32_Data( i2c_base, 4,0x10))
        return FALSE;

   //wait TIP bit go to 0 to end Tx
    if(!ACK_check( i2c_base)){
        printf("OC_I2CL_Write error[1]\r\n");
     ab8:	010000b4 	movhi	r4,2
     abc:	21382904 	addi	r4,r4,-8028
     ac0:	000b4c80 	call	b4c8 <puts>
        return FALSE;
     ac4:	0005883a 	mov	r2,zero
     ac8:	003fe506 	br	a60 <__alt_mem_nios_system_shared_memory+0xfffc0a60>
#define TRUE 1
#define FALSE 0

bool Write32_Data(alt_32 base_address, alt_32 offset_address, alt_32 Data){
	bool bPass;
    IOWR(base_address, offset_address,Data);
     acc:	ad403fcc 	andi	r21,r21,255
     ad0:	9d400035 	stwio	r21,0(r19)
     ad4:	00800404 	movi	r2,16
     ad8:	90800035 	stwio	r2,0(r18)
     adc:	04000284 	movi	r16,10
bool  ACK_check(alt_32 i2c_base){
    bool bSuccess = FALSE;
    int i=0;

    while(!bSuccess && i++ < 10){
        bSuccess = ACK_single_check(i2c_base);
     ae0:	8809883a 	mov	r4,r17
     ae4:	00003bc0 	call	3bc <ACK_single_check>

bool  ACK_check(alt_32 i2c_base){
    bool bSuccess = FALSE;
    int i=0;

    while(!bSuccess && i++ < 10){
     ae8:	10803fcc 	andi	r2,r2,255
     aec:	843fffc4 	addi	r16,r16,-1
     af0:	1000061e 	bne	r2,zero,b0c <OC_I2CL_Write+0x120>
     af4:	803ffa1e 	bne	r16,zero,ae0 <__alt_mem_nios_system_shared_memory+0xfffc0ae0>
   //set WR bits(bit4)
    Write32_Data( i2c_base, 4,0x10);

   //wait TIP bit go to 0 to end Tx
    if(!ACK_check( i2c_base)){
        printf("OC_I2CL_Write error[2]\r\n");
     af8:	010000b4 	movhi	r4,2
     afc:	21382f04 	addi	r4,r4,-8004
     b00:	000b4c80 	call	b4c8 <puts>
        return FALSE;
     b04:	0005883a 	mov	r2,zero
     b08:	003fd506 	br	a60 <__alt_mem_nios_system_shared_memory+0xfffc0a60>
    }
  //  printf("\n receive ACK-reg low address! \n");

#if 1
    //for( i=nWriteLength-1;i>=0;i--){
    for( i=0;i<nWriteLength;i++){
     b0c:	d8800817 	ldw	r2,32(sp)
     b10:	0080140e 	bge	zero,r2,b64 <OC_I2CL_Write+0x178>
     b14:	d8800817 	ldw	r2,32(sp)
#define TRUE 1
#define FALSE 0

bool Write32_Data(alt_32 base_address, alt_32 offset_address, alt_32 Data){
	bool bPass;
    IOWR(base_address, offset_address,Data);
     b18:	05800404 	movi	r22,16
     b1c:	a0ab883a 	add	r21,r20,r2
     b20:	a0800003 	ldbu	r2,0(r20)
     b24:	98800035 	stwio	r2,0(r19)
     b28:	95800035 	stwio	r22,0(r18)
     b2c:	04000284 	movi	r16,10
bool  ACK_check(alt_32 i2c_base){
    bool bSuccess = FALSE;
    int i=0;

    while(!bSuccess && i++ < 10){
        bSuccess = ACK_single_check(i2c_base);
     b30:	8809883a 	mov	r4,r17
     b34:	00003bc0 	call	3bc <ACK_single_check>

bool  ACK_check(alt_32 i2c_base){
    bool bSuccess = FALSE;
    int i=0;

    while(!bSuccess && i++ < 10){
     b38:	10803fcc 	andi	r2,r2,255
     b3c:	843fffc4 	addi	r16,r16,-1
     b40:	1000061e 	bne	r2,zero,b5c <OC_I2CL_Write+0x170>
     b44:	803ffa1e 	bne	r16,zero,b30 <__alt_mem_nios_system_shared_memory+0xfffc0b30>
        if (!Write32_Data( i2c_base, 4,0x10))
            return FALSE;

        //wait TIP bit go to 0 to end Tx
         if(!ACK_check( i2c_base)){
             printf("OC_I2CL_Write error[3]\r\n");
     b48:	010000b4 	movhi	r4,2
     b4c:	21383504 	addi	r4,r4,-7980
     b50:	000b4c80 	call	b4c8 <puts>
             return FALSE;
     b54:	0005883a 	mov	r2,zero
     b58:	003fc106 	br	a60 <__alt_mem_nios_system_shared_memory+0xfffc0a60>
     b5c:	a5000044 	addi	r20,r20,1
    }
  //  printf("\n receive ACK-reg low address! \n");

#if 1
    //for( i=nWriteLength-1;i>=0;i--){
    for( i=0;i<nWriteLength;i++){
     b60:	a57fef1e 	bne	r20,r21,b20 <__alt_mem_nios_system_shared_memory+0xfffc0b20>
#define TRUE 1
#define FALSE 0

bool Write32_Data(alt_32 base_address, alt_32 offset_address, alt_32 Data){
	bool bPass;
    IOWR(base_address, offset_address,Data);
     b64:	00801004 	movi	r2,64
     b68:	90800035 	stwio	r2,0(r18)
#endif
    if (!Write32_Data( i2c_base, 4,0x40))
         return FALSE;

     //OS_msleep(1);
      usleep(SLEEP_TIME);
     b6c:	01003e84 	movi	r4,250
     b70:	001b9f40 	call	1b9f4 <usleep>
  //  printf("\n receive ACK-data! \n");

     return TRUE;
     b74:	00800044 	movi	r2,1
     b78:	003fb906 	br	a60 <__alt_mem_nios_system_shared_memory+0xfffc0a60>

00000b7c <OC_I2CL_Read>:

   return TRUE;

} */

bool  OC_I2CL_Read(alt_32 i2c_base,alt_u8 device_address, alt_u16 sub_address, alt_u8 *pData8, int nReadLength){
     b7c:	defff804 	addi	sp,sp,-32
     b80:	dd800615 	stw	r22,24(sp)
     b84:	dd400515 	stw	r21,20(sp)
     b88:	dd000415 	stw	r20,16(sp)
     b8c:	dcc00315 	stw	r19,12(sp)
     b90:	dc400115 	stw	r17,4(sp)
     b94:	dfc00715 	stw	ra,28(sp)
     b98:	dc800215 	stw	r18,8(sp)
     b9c:	dc000015 	stw	r16,0(sp)
     ba0:	2023883a 	mov	r17,r4
     ba4:	2829883a 	mov	r20,r5
     ba8:	302b883a 	mov	r21,r6
     bac:	382d883a 	mov	r22,r7
#define TRUE 1
#define FALSE 0

bool Write32_Data(alt_32 base_address, alt_32 offset_address, alt_32 Data){
	bool bPass;
    IOWR(base_address, offset_address,Data);
     bb0:	24c00304 	addi	r19,r4,12
     bb4:	28803fcc 	andi	r2,r5,255
     bb8:	98800035 	stwio	r2,0(r19)
     bbc:	24800404 	addi	r18,r4,16
     bc0:	00802404 	movi	r2,144
     bc4:	90800035 	stwio	r2,0(r18)
     bc8:	04000284 	movi	r16,10
bool  ACK_check(alt_32 i2c_base){
    bool bSuccess = FALSE;
    int i=0;

    while(!bSuccess && i++ < 10){
        bSuccess = ACK_single_check(i2c_base);
     bcc:	8809883a 	mov	r4,r17
     bd0:	00003bc0 	call	3bc <ACK_single_check>

bool  ACK_check(alt_32 i2c_base){
    bool bSuccess = FALSE;
    int i=0;

    while(!bSuccess && i++ < 10){
     bd4:	10803fcc 	andi	r2,r2,255
     bd8:	843fffc4 	addi	r16,r16,-1
     bdc:	10000f1e 	bne	r2,zero,c1c <OC_I2CL_Read+0xa0>
     be0:	803ffa1e 	bne	r16,zero,bcc <__alt_mem_nios_system_shared_memory+0xfffc0bcc>
   if (!Write32_Data( i2c_base, 4,0x90))
       return FALSE;

   //wait TIP bit go to 0 to end Tx
    if(!ACK_check( i2c_base)){
        printf("OC_I2CL_Read error[0]\r\n");
     be4:	010000b4 	movhi	r4,2
     be8:	21383b04 	addi	r4,r4,-7956
     bec:	000b4c80 	call	b4c8 <puts>
        return FALSE;
     bf0:	0005883a 	mov	r2,zero
   //OS_msleep(1);
    usleep(SLEEP_TIME);

   return TRUE;

}
     bf4:	dfc00717 	ldw	ra,28(sp)
     bf8:	dd800617 	ldw	r22,24(sp)
     bfc:	dd400517 	ldw	r21,20(sp)
     c00:	dd000417 	ldw	r20,16(sp)
     c04:	dcc00317 	ldw	r19,12(sp)
     c08:	dc800217 	ldw	r18,8(sp)
     c0c:	dc400117 	ldw	r17,4(sp)
     c10:	dc000017 	ldw	r16,0(sp)
     c14:	dec00804 	addi	sp,sp,32
     c18:	f800283a 	ret
#define TRUE 1
#define FALSE 0

bool Write32_Data(alt_32 base_address, alt_32 offset_address, alt_32 Data){
	bool bPass;
    IOWR(base_address, offset_address,Data);
     c1c:	a8bfffcc 	andi	r2,r21,65535
     c20:	1004d23a 	srli	r2,r2,8
     c24:	98800035 	stwio	r2,0(r19)
     c28:	00800404 	movi	r2,16
     c2c:	90800035 	stwio	r2,0(r18)
     c30:	04000284 	movi	r16,10
bool  ACK_check(alt_32 i2c_base){
    bool bSuccess = FALSE;
    int i=0;

    while(!bSuccess && i++ < 10){
        bSuccess = ACK_single_check(i2c_base);
     c34:	8809883a 	mov	r4,r17
     c38:	00003bc0 	call	3bc <ACK_single_check>

bool  ACK_check(alt_32 i2c_base){
    bool bSuccess = FALSE;
    int i=0;

    while(!bSuccess && i++ < 10){
     c3c:	10803fcc 	andi	r2,r2,255
     c40:	843fffc4 	addi	r16,r16,-1
     c44:	1000061e 	bne	r2,zero,c60 <OC_I2CL_Read+0xe4>
     c48:	803ffa1e 	bne	r16,zero,c34 <__alt_mem_nios_system_shared_memory+0xfffc0c34>
    if (!Write32_Data( i2c_base, 4,0x10))
        return FALSE;

   //wait TIP bit go to 0 to end Tx
    if(!ACK_check( i2c_base)){
        printf("OC_I2CL_Read error[1]\r\n");
     c4c:	010000b4 	movhi	r4,2
     c50:	21384104 	addi	r4,r4,-7932
     c54:	000b4c80 	call	b4c8 <puts>
        return FALSE;
     c58:	0005883a 	mov	r2,zero
     c5c:	003fe506 	br	bf4 <__alt_mem_nios_system_shared_memory+0xfffc0bf4>
#define TRUE 1
#define FALSE 0

bool Write32_Data(alt_32 base_address, alt_32 offset_address, alt_32 Data){
	bool bPass;
    IOWR(base_address, offset_address,Data);
     c60:	ad403fcc 	andi	r21,r21,255
     c64:	9d400035 	stwio	r21,0(r19)
     c68:	00800404 	movi	r2,16
     c6c:	90800035 	stwio	r2,0(r18)
     c70:	04000284 	movi	r16,10
bool  ACK_check(alt_32 i2c_base){
    bool bSuccess = FALSE;
    int i=0;

    while(!bSuccess && i++ < 10){
        bSuccess = ACK_single_check(i2c_base);
     c74:	8809883a 	mov	r4,r17
     c78:	00003bc0 	call	3bc <ACK_single_check>

bool  ACK_check(alt_32 i2c_base){
    bool bSuccess = FALSE;
    int i=0;

    while(!bSuccess && i++ < 10){
     c7c:	10803fcc 	andi	r2,r2,255
     c80:	843fffc4 	addi	r16,r16,-1
     c84:	1000061e 	bne	r2,zero,ca0 <OC_I2CL_Read+0x124>
     c88:	803ffa1e 	bne	r16,zero,c74 <__alt_mem_nios_system_shared_memory+0xfffc0c74>
    if (!Write32_Data( i2c_base, 4,0x10))
        return FALSE;

   //wait TIP bit go to 0 to end Tx
    if(!ACK_check( i2c_base)){
        printf("OC_I2CL_Read error[2]\r\n");
     c8c:	010000b4 	movhi	r4,2
     c90:	21384704 	addi	r4,r4,-7908
     c94:	000b4c80 	call	b4c8 <puts>
        return FALSE;
     c98:	0005883a 	mov	r2,zero
     c9c:	003fd506 	br	bf4 <__alt_mem_nios_system_shared_memory+0xfffc0bf4>
#define TRUE 1
#define FALSE 0

bool Write32_Data(alt_32 base_address, alt_32 offset_address, alt_32 Data){
	bool bPass;
    IOWR(base_address, offset_address,Data);
     ca0:	a5000054 	ori	r20,r20,1
     ca4:	a5003fcc 	andi	r20,r20,255
     ca8:	9d000035 	stwio	r20,0(r19)
     cac:	00802404 	movi	r2,144
     cb0:	90800035 	stwio	r2,0(r18)
     cb4:	04000284 	movi	r16,10
bool  ACK_check(alt_32 i2c_base){
    bool bSuccess = FALSE;
    int i=0;

    while(!bSuccess && i++ < 10){
        bSuccess = ACK_single_check(i2c_base);
     cb8:	8809883a 	mov	r4,r17
     cbc:	00003bc0 	call	3bc <ACK_single_check>

bool  ACK_check(alt_32 i2c_base){
    bool bSuccess = FALSE;
    int i=0;

    while(!bSuccess && i++ < 10){
     cc0:	10803fcc 	andi	r2,r2,255
     cc4:	843fffc4 	addi	r16,r16,-1
     cc8:	1000061e 	bne	r2,zero,ce4 <OC_I2CL_Read+0x168>
     ccc:	803ffa1e 	bne	r16,zero,cb8 <__alt_mem_nios_system_shared_memory+0xfffc0cb8>
     if (!Write32_Data( i2c_base, 4,0x90))
         return FALSE;

   //wait TIP bit go to 0 to end Tx
    if(!ACK_check( i2c_base)){
        printf("OC_I2CL_Read error[3]\r\n");
     cd0:	010000b4 	movhi	r4,2
     cd4:	21384d04 	addi	r4,r4,-7884
     cd8:	000b4c80 	call	b4c8 <puts>
        return FALSE;
     cdc:	0005883a 	mov	r2,zero
     ce0:	003fc406 	br	bf4 <__alt_mem_nios_system_shared_memory+0xfffc0bf4>
//   printf("\n read receive ACK-device address(read)! \n");

       //read the rxr data

#if 1
    for(i=0;i<nReadLength;i++){
     ce4:	d8800817 	ldw	r2,32(sp)
     ce8:	0080200e 	bge	zero,r2,d6c <OC_I2CL_Read+0x1f0>
     cec:	b021883a 	mov	r16,r22
     cf0:	0029883a 	mov	r20,zero
  // printf("\n read receive ACK-device address(read)! \n");
   //set the RD and ACK bit(bit5 and bit3)
    	IOWR( i2c_base, 4,((i+1) == nReadLength)?0x28:0x20);
     cf4:	05400804 	movi	r21,32
     cf8:	d8800817 	ldw	r2,32(sp)
     cfc:	a4400044 	addi	r17,r20,1
     d00:	14401026 	beq	r2,r17,d44 <OC_I2CL_Read+0x1c8>
     d04:	95400035 	stwio	r21,0(r18)
{
	bool bSuccess;
    alt_32 this_data;

   // OS_msleep( SLEEP_TIME );
     usleep(ACK_SLEEP_TIME);
     d08:	01003e84 	movi	r4,250
     d0c:	001b9f40 	call	1b9f4 <usleep>



bool  Read32_Data(alt_32 base_address, alt_32 offset_address, alt_32 *pData32){
	bool bPass;
	*pData32 =IORD(base_address ,offset_address  );
     d10:	90800037 	ldwio	r2,0(r18)
//   {
//      this_data =  Read32_Data ( hPCIe, i2c_base, 4);
//   }
    bSuccess =  Read32_Data ( i2c_base, 4, &this_data);
    if (bSuccess){
        if(this_data & 0x02)
     d14:	1080008c 	andi	r2,r2,2
     d18:	10000526 	beq	r2,zero,d30 <OC_I2CL_Read+0x1b4>
  // printf("\n read receive ACK-device address(read)! \n");
   //set the RD and ACK bit(bit5 and bit3)
    	IOWR( i2c_base, 4,((i+1) == nReadLength)?0x28:0x20);

        if (!ACK_judge_for_read( i2c_base)){
            printf("OC_I2CL_Read error[4]\r\n");
     d1c:	010000b4 	movhi	r4,2
     d20:	21385304 	addi	r4,r4,-7860
     d24:	000b4c80 	call	b4c8 <puts>
            return FALSE;
     d28:	0005883a 	mov	r2,zero
     d2c:	003fb106 	br	bf4 <__alt_mem_nios_system_shared_memory+0xfffc0bf4>
        }
   // printf("\n read receive ACK-device address(read)! \n");

        Data32=IORD( i2c_base, 3);
     d30:	98800037 	ldwio	r2,0(r19)
        *(pData8+i) =  Data32 & 0xff;
     d34:	80800005 	stb	r2,0(r16)
     d38:	8829883a 	mov	r20,r17
     d3c:	84000044 	addi	r16,r16,1
     d40:	003fed06 	br	cf8 <__alt_mem_nios_system_shared_memory+0xfffc0cf8>

#if 1
    for(i=0;i<nReadLength;i++){
  // printf("\n read receive ACK-device address(read)! \n");
   //set the RD and ACK bit(bit5 and bit3)
    	IOWR( i2c_base, 4,((i+1) == nReadLength)?0x28:0x20);
     d44:	00800a04 	movi	r2,40
     d48:	90800035 	stwio	r2,0(r18)
{
	bool bSuccess;
    alt_32 this_data;

   // OS_msleep( SLEEP_TIME );
     usleep(ACK_SLEEP_TIME);
     d4c:	01003e84 	movi	r4,250
     d50:	001b9f40 	call	1b9f4 <usleep>



bool  Read32_Data(alt_32 base_address, alt_32 offset_address, alt_32 *pData32){
	bool bPass;
	*pData32 =IORD(base_address ,offset_address  );
     d54:	90800037 	ldwio	r2,0(r18)
//   {
//      this_data =  Read32_Data ( hPCIe, i2c_base, 4);
//   }
    bSuccess =  Read32_Data ( i2c_base, 4, &this_data);
    if (bSuccess){
        if(this_data & 0x02)
     d58:	1080008c 	andi	r2,r2,2
     d5c:	103fef1e 	bne	r2,zero,d1c <__alt_mem_nios_system_shared_memory+0xfffc0d1c>
            printf("OC_I2CL_Read error[4]\r\n");
            return FALSE;
        }
   // printf("\n read receive ACK-device address(read)! \n");

        Data32=IORD( i2c_base, 3);
     d60:	98800037 	ldwio	r2,0(r19)
        *(pData8+i) =  Data32 & 0xff;
     d64:	b529883a 	add	r20,r22,r20
     d68:	a0800005 	stb	r2,0(r20)
#define TRUE 1
#define FALSE 0

bool Write32_Data(alt_32 base_address, alt_32 offset_address, alt_32 Data){
	bool bPass;
    IOWR(base_address, offset_address,Data);
     d6c:	00801004 	movi	r2,64
     d70:	90800035 	stwio	r2,0(r18)

   if (!Write32_Data( i2c_base, 4,0x40))
       return FALSE;

   //OS_msleep(1);
    usleep(SLEEP_TIME);
     d74:	01003e84 	movi	r4,250
     d78:	001b9f40 	call	1b9f4 <usleep>

   return TRUE;
     d7c:	00800044 	movi	r2,1
     d80:	003f9c06 	br	bf4 <__alt_mem_nios_system_shared_memory+0xfffc0bf4>

00000d84 <set_esp8266_file_blocking>:
#define passwd "Hu6H79s7m6q8sgaBXH25"

FILE *esp8266_file;

void set_esp8266_file_blocking(bool blocking)
{
     d84:	defffe04 	addi	sp,sp,-8
     d88:	dfc00115 	stw	ra,4(sp)
     d8c:	dc000015 	stw	r16,0(sp)
    if (blocking == false) {
     d90:	21003fcc 	andi	r4,r4,255
     d94:	20001026 	beq	r4,zero,dd8 <set_esp8266_file_blocking+0x54>
        fcntl(fileno(esp8266_file), F_SETFL, O_NONBLOCK);
    } else {
        int file_fl = fcntl(fileno(esp8266_file), F_GETFL);
     d98:	d1270617 	ldw	r4,-25576(gp)
     d9c:	00095f80 	call	95f8 <fileno>
     da0:	014000c4 	movi	r5,3
     da4:	1009883a 	mov	r4,r2
     da8:	001ad8c0 	call	1ad8c <fcntl>
        file_fl = file_fl & ~O_NONBLOCK;
        fcntl(fileno(esp8266_file), F_SETFL, file_fl);
     dac:	d1270617 	ldw	r4,-25576(gp)
void set_esp8266_file_blocking(bool blocking)
{
    if (blocking == false) {
        fcntl(fileno(esp8266_file), F_SETFL, O_NONBLOCK);
    } else {
        int file_fl = fcntl(fileno(esp8266_file), F_GETFL);
     db0:	1021883a 	mov	r16,r2
        file_fl = file_fl & ~O_NONBLOCK;
        fcntl(fileno(esp8266_file), F_SETFL, file_fl);
     db4:	00095f80 	call	95f8 <fileno>
     db8:	01afffc4 	movi	r6,-16385
     dbc:	818c703a 	and	r6,r16,r6
     dc0:	01400104 	movi	r5,4
     dc4:	1009883a 	mov	r4,r2
    }
}
     dc8:	dfc00117 	ldw	ra,4(sp)
     dcc:	dc000017 	ldw	r16,0(sp)
     dd0:	dec00204 	addi	sp,sp,8
    if (blocking == false) {
        fcntl(fileno(esp8266_file), F_SETFL, O_NONBLOCK);
    } else {
        int file_fl = fcntl(fileno(esp8266_file), F_GETFL);
        file_fl = file_fl & ~O_NONBLOCK;
        fcntl(fileno(esp8266_file), F_SETFL, file_fl);
     dd4:	001ad8c1 	jmpi	1ad8c <fcntl>
FILE *esp8266_file;

void set_esp8266_file_blocking(bool blocking)
{
    if (blocking == false) {
        fcntl(fileno(esp8266_file), F_SETFL, O_NONBLOCK);
     dd8:	d1270617 	ldw	r4,-25576(gp)
     ddc:	00095f80 	call	95f8 <fileno>
     de0:	01900004 	movi	r6,16384
     de4:	003ff606 	br	dc0 <__alt_mem_nios_system_shared_memory+0xfffc0dc0>

00000de8 <esp8266_gets>:
    return bSuccess;
}

char *esp8266_gets(char *buffer, int buffer_size)
{
    return fgets(buffer, buffer_size, esp8266_file);
     de8:	d1a70617 	ldw	r6,-25576(gp)
     dec:	00095dc1 	jmpi	95dc <fgets>

00000df0 <esp8266_send_command>:
}

bool esp8266_send_command(const char *cmd)
{
     df0:	deff0104 	addi	sp,sp,-1020
     df4:	dcc0fd15 	stw	r19,1012(sp)
     df8:	2027883a 	mov	r19,r4
	fprintf(esp8266_file, "%s\r\n", cmd);
     dfc:	d1270617 	ldw	r4,-25576(gp)
     e00:	014000b4 	movhi	r5,2
     e04:	29785904 	addi	r5,r5,-7836
     e08:	980d883a 	mov	r6,r19
{
    return fgets(buffer, buffer_size, esp8266_file);
}

bool esp8266_send_command(const char *cmd)
{
     e0c:	dc80fc15 	stw	r18,1008(sp)
     e10:	dc40fb15 	stw	r17,1004(sp)
     e14:	dc00fa15 	stw	r16,1000(sp)
     e18:	dfc0fe15 	stw	ra,1016(sp)
	fprintf(esp8266_file, "%s\r\n", cmd);
   	int length = 0;
     e1c:	0023883a 	mov	r17,zero
    return fgets(buffer, buffer_size, esp8266_file);
}

bool esp8266_send_command(const char *cmd)
{
	fprintf(esp8266_file, "%s\r\n", cmd);
     e20:	0009b440 	call	9b44 <fprintf>
     e24:	d821883a 	mov	r16,sp
   	int length = 0;
    char buffer[1000];
    int i=0;
    while (1) {
    	if (fgets(buffer + length, sizeof(buffer) - length,
     e28:	0480fa04 	movi	r18,1000
     e2c:	d1a70617 	ldw	r6,-25576(gp)
     e30:	944bc83a 	sub	r5,r18,r17
     e34:	8009883a 	mov	r4,r16
     e38:	00095dc0 	call	95dc <fgets>
                esp8266_file) != NULL) {
#ifdef ESP8266_DEBUG
            printf("%s", buffer + length);
#endif
            if (strstr(buffer + length, "OK") != NULL) {
     e3c:	014000b4 	movhi	r5,2
     e40:	29785b04 	addi	r5,r5,-7828
     e44:	8009883a 	mov	r4,r16
	fprintf(esp8266_file, "%s\r\n", cmd);
   	int length = 0;
    char buffer[1000];
    int i=0;
    while (1) {
    	if (fgets(buffer + length, sizeof(buffer) - length,
     e48:	103ff826 	beq	r2,zero,e2c <__alt_mem_nios_system_shared_memory+0xfffc0e2c>
                esp8266_file) != NULL) {
#ifdef ESP8266_DEBUG
            printf("%s", buffer + length);
#endif
            if (strstr(buffer + length, "OK") != NULL) {
     e4c:	000bfd80 	call	bfd8 <strstr>
                if (strcmp("AT+CWLAP", cmd) == 0) {
                    printf("%s", buffer);
                }
                return true;
            } else if (strstr(buffer + length, "ERROR") != NULL) {
     e50:	014000b4 	movhi	r5,2
     e54:	29786004 	addi	r5,r5,-7808
     e58:	8009883a 	mov	r4,r16
    	if (fgets(buffer + length, sizeof(buffer) - length,
                esp8266_file) != NULL) {
#ifdef ESP8266_DEBUG
            printf("%s", buffer + length);
#endif
            if (strstr(buffer + length, "OK") != NULL) {
     e5c:	1000141e 	bne	r2,zero,eb0 <esp8266_send_command+0xc0>
                if (strcmp("AT+CWLAP", cmd) == 0) {
                    printf("%s", buffer);
                }
                return true;
            } else if (strstr(buffer + length, "ERROR") != NULL) {
     e60:	000bfd80 	call	bfd8 <strstr>
                return false;
            } else if (strstr(buffer + length, "FAIL") != NULL) {
     e64:	014000b4 	movhi	r5,2
     e68:	29786204 	addi	r5,r5,-7800
     e6c:	8009883a 	mov	r4,r16
            if (strstr(buffer + length, "OK") != NULL) {
                if (strcmp("AT+CWLAP", cmd) == 0) {
                    printf("%s", buffer);
                }
                return true;
            } else if (strstr(buffer + length, "ERROR") != NULL) {
     e70:	1000071e 	bne	r2,zero,e90 <esp8266_send_command+0xa0>
                return false;
            } else if (strstr(buffer + length, "FAIL") != NULL) {
     e74:	000bfd80 	call	bfd8 <strstr>
                return false;
            }
            length += strlen(buffer + length);
     e78:	8009883a 	mov	r4,r16
                    printf("%s", buffer);
                }
                return true;
            } else if (strstr(buffer + length, "ERROR") != NULL) {
                return false;
            } else if (strstr(buffer + length, "FAIL") != NULL) {
     e7c:	1000041e 	bne	r2,zero,e90 <esp8266_send_command+0xa0>
                return false;
            }
            length += strlen(buffer + length);
     e80:	000ba8c0 	call	ba8c <strlen>
     e84:	88a3883a 	add	r17,r17,r2
     e88:	dc61883a 	add	r16,sp,r17
     e8c:	003fe706 	br	e2c <__alt_mem_nios_system_shared_memory+0xfffc0e2c>
                if (strcmp("AT+CWLAP", cmd) == 0) {
                    printf("%s", buffer);
                }
                return true;
            } else if (strstr(buffer + length, "ERROR") != NULL) {
                return false;
     e90:	0005883a 	mov	r2,zero
            }
            length += strlen(buffer + length);
        }
    }
    return false;
}
     e94:	dfc0fe17 	ldw	ra,1016(sp)
     e98:	dcc0fd17 	ldw	r19,1012(sp)
     e9c:	dc80fc17 	ldw	r18,1008(sp)
     ea0:	dc40fb17 	ldw	r17,1004(sp)
     ea4:	dc00fa17 	ldw	r16,1000(sp)
     ea8:	dec0ff04 	addi	sp,sp,1020
     eac:	f800283a 	ret
                esp8266_file) != NULL) {
#ifdef ESP8266_DEBUG
            printf("%s", buffer + length);
#endif
            if (strstr(buffer + length, "OK") != NULL) {
                if (strcmp("AT+CWLAP", cmd) == 0) {
     eb0:	010000b4 	movhi	r4,2
     eb4:	21385c04 	addi	r4,r4,-7824
     eb8:	980b883a 	mov	r5,r19
     ebc:	000b9200 	call	b920 <strcmp>
     ec0:	10000226 	beq	r2,zero,ecc <esp8266_send_command+0xdc>
                    printf("%s", buffer);
                }
                return true;
     ec4:	00800044 	movi	r2,1
     ec8:	003ff206 	br	e94 <__alt_mem_nios_system_shared_memory+0xfffc0e94>
#ifdef ESP8266_DEBUG
            printf("%s", buffer + length);
#endif
            if (strstr(buffer + length, "OK") != NULL) {
                if (strcmp("AT+CWLAP", cmd) == 0) {
                    printf("%s", buffer);
     ecc:	010000b4 	movhi	r4,2
     ed0:	21385f04 	addi	r4,r4,-7812
     ed4:	d80b883a 	mov	r5,sp
     ed8:	000b3ac0 	call	b3ac <printf>
                }
                return true;
     edc:	00800044 	movi	r2,1
     ee0:	003fec06 	br	e94 <__alt_mem_nios_system_shared_memory+0xfffc0e94>

00000ee4 <esp8266_send_data>:
    }
    return false;
}

bool esp8266_send_data(const char *data, int length)
{
     ee4:	deff0204 	addi	sp,sp,-1016
     ee8:	dc00fa15 	stw	r16,1000(sp)
     eec:	2021883a 	mov	r16,r4
    write(fileno(esp8266_file), data, length);
     ef0:	d1270617 	ldw	r4,-25576(gp)
    }
    return false;
}

bool esp8266_send_data(const char *data, int length)
{
     ef4:	dfc0fd15 	stw	ra,1012(sp)
     ef8:	dc80fc15 	stw	r18,1008(sp)
     efc:	dc40fb15 	stw	r17,1004(sp)
     f00:	2825883a 	mov	r18,r5
    write(fileno(esp8266_file), data, length);
     f04:	00095f80 	call	95f8 <fileno>
     f08:	900d883a 	mov	r6,r18
     f0c:	800b883a 	mov	r5,r16
     f10:	1009883a 	mov	r4,r2

    length = 0;
     f14:	0023883a 	mov	r17,zero
    return false;
}

bool esp8266_send_data(const char *data, int length)
{
    write(fileno(esp8266_file), data, length);
     f18:	001ba600 	call	1ba60 <write>
     f1c:	d821883a 	mov	r16,sp

    length = 0;
    char buffer[1000];
    while (1) {
        if (fgets(buffer + length, sizeof(buffer) - length,
     f20:	0480fa04 	movi	r18,1000
     f24:	d1a70617 	ldw	r6,-25576(gp)
     f28:	944bc83a 	sub	r5,r18,r17
     f2c:	8009883a 	mov	r4,r16
     f30:	00095dc0 	call	95dc <fgets>
                esp8266_file) != NULL) {
#ifdef ESP8266_DEBUG
            printf("%s", buffer + length);
#endif
            if (strstr(buffer + length, "SEND OK") != NULL) {
     f34:	014000b4 	movhi	r5,2
     f38:	29786404 	addi	r5,r5,-7792
     f3c:	8009883a 	mov	r4,r16
    write(fileno(esp8266_file), data, length);

    length = 0;
    char buffer[1000];
    while (1) {
        if (fgets(buffer + length, sizeof(buffer) - length,
     f40:	103ff826 	beq	r2,zero,f24 <__alt_mem_nios_system_shared_memory+0xfffc0f24>
                esp8266_file) != NULL) {
#ifdef ESP8266_DEBUG
            printf("%s", buffer + length);
#endif
            if (strstr(buffer + length, "SEND OK") != NULL) {
     f44:	000bfd80 	call	bfd8 <strstr>
                return true;
            } else if (strstr(buffer + length, "SEND FAIL") != NULL) {
     f48:	014000b4 	movhi	r5,2
     f4c:	29786604 	addi	r5,r5,-7784
     f50:	8009883a 	mov	r4,r16
        if (fgets(buffer + length, sizeof(buffer) - length,
                esp8266_file) != NULL) {
#ifdef ESP8266_DEBUG
            printf("%s", buffer + length);
#endif
            if (strstr(buffer + length, "SEND OK") != NULL) {
     f54:	1000071e 	bne	r2,zero,f74 <esp8266_send_data+0x90>
                return true;
            } else if (strstr(buffer + length, "SEND FAIL") != NULL) {
     f58:	000bfd80 	call	bfd8 <strstr>
                printf("%s", buffer);
                return false;
            }
            length += strlen(buffer + length);
     f5c:	8009883a 	mov	r4,r16
#ifdef ESP8266_DEBUG
            printf("%s", buffer + length);
#endif
            if (strstr(buffer + length, "SEND OK") != NULL) {
                return true;
            } else if (strstr(buffer + length, "SEND FAIL") != NULL) {
     f60:	10000b1e 	bne	r2,zero,f90 <esp8266_send_data+0xac>
                printf("%s", buffer);
                return false;
            }
            length += strlen(buffer + length);
     f64:	000ba8c0 	call	ba8c <strlen>
     f68:	88a3883a 	add	r17,r17,r2
     f6c:	dc61883a 	add	r16,sp,r17
     f70:	003fec06 	br	f24 <__alt_mem_nios_system_shared_memory+0xfffc0f24>
                esp8266_file) != NULL) {
#ifdef ESP8266_DEBUG
            printf("%s", buffer + length);
#endif
            if (strstr(buffer + length, "SEND OK") != NULL) {
                return true;
     f74:	00800044 	movi	r2,1
            }
            length += strlen(buffer + length);
        }
    }
    return false;
}
     f78:	dfc0fd17 	ldw	ra,1012(sp)
     f7c:	dc80fc17 	ldw	r18,1008(sp)
     f80:	dc40fb17 	ldw	r17,1004(sp)
     f84:	dc00fa17 	ldw	r16,1000(sp)
     f88:	dec0fe04 	addi	sp,sp,1016
     f8c:	f800283a 	ret
            printf("%s", buffer + length);
#endif
            if (strstr(buffer + length, "SEND OK") != NULL) {
                return true;
            } else if (strstr(buffer + length, "SEND FAIL") != NULL) {
                printf("%s", buffer);
     f90:	010000b4 	movhi	r4,2
     f94:	21385f04 	addi	r4,r4,-7812
     f98:	d80b883a 	mov	r5,sp
     f9c:	000b3ac0 	call	b3ac <printf>
                return false;
     fa0:	0005883a 	mov	r2,zero
     fa4:	003ff406 	br	f78 <__alt_mem_nios_system_shared_memory+0xfffc0f78>

00000fa8 <esp8266_dump_rx>:
    }
    return false;
}

void esp8266_dump_rx()
{
     fa8:	deff0504 	addi	sp,sp,-1004
    char buffer[1000];
    set_esp8266_file_blocking(false);
     fac:	0009883a 	mov	r4,zero
    }
    return false;
}

void esp8266_dump_rx()
{
     fb0:	dfc0fa15 	stw	ra,1000(sp)
    char buffer[1000];
    set_esp8266_file_blocking(false);
     fb4:	0000d840 	call	d84 <set_esp8266_file_blocking>
    return bSuccess;
}

char *esp8266_gets(char *buffer, int buffer_size)
{
    return fgets(buffer, buffer_size, esp8266_file);
     fb8:	d1a70617 	ldw	r6,-25576(gp)
     fbc:	0140fa04 	movi	r5,1000
     fc0:	d809883a 	mov	r4,sp
     fc4:	00095dc0 	call	95dc <fgets>

void esp8266_dump_rx()
{
    char buffer[1000];
    set_esp8266_file_blocking(false);
    while (esp8266_gets(buffer, sizeof(buffer)) != NULL) {
     fc8:	103ffb1e 	bne	r2,zero,fb8 <__alt_mem_nios_system_shared_memory+0xfffc0fb8>
#ifdef ESP8266_DEBUG
        printf("%s", buffer);
#endif
    }
    set_esp8266_file_blocking(true);
     fcc:	01000044 	movi	r4,1
     fd0:	0000d840 	call	d84 <set_esp8266_file_blocking>
    fflush(stdout);
     fd4:	d0a00617 	ldw	r2,-32744(gp)
     fd8:	11000217 	ldw	r4,8(r2)
     fdc:	00094680 	call	9468 <fflush>
}
     fe0:	dfc0fa17 	ldw	ra,1000(sp)
     fe4:	dec0fb04 	addi	sp,sp,1004
     fe8:	f800283a 	ret

00000fec <esp8266_init>:
        fcntl(fileno(esp8266_file), F_SETFL, file_fl);
    }
}

bool esp8266_init(bool reset)
{
     fec:	deffe504 	addi	sp,sp,-108
     ff0:	dc001915 	stw	r16,100(sp)
    bool bSuccess = true;
    esp8266_file = fopen(esp8266_uart, "rw+");
     ff4:	014000b4 	movhi	r5,2
        fcntl(fileno(esp8266_file), F_SETFL, file_fl);
    }
}

bool esp8266_init(bool reset)
{
     ff8:	2021883a 	mov	r16,r4
    bool bSuccess = true;
    esp8266_file = fopen(esp8266_uart, "rw+");
     ffc:	010000b4 	movhi	r4,2
    1000:	29786904 	addi	r5,r5,-7772
    1004:	21386a04 	addi	r4,r4,-7768
        fcntl(fileno(esp8266_file), F_SETFL, file_fl);
    }
}

bool esp8266_init(bool reset)
{
    1008:	dfc01a15 	stw	ra,104(sp)
    bool bSuccess = true;
    esp8266_file = fopen(esp8266_uart, "rw+");
    100c:	0009b040 	call	9b04 <fopen>
    1010:	d0a70615 	stw	r2,-25576(gp)
    if (esp8266_file == NULL) {
    1014:	10003526 	beq	r2,zero,10ec <esp8266_init+0x100>
        printf("Open UART_0 failed\n");
        return false;
    }
    if (reset) {
    1018:	84003fcc 	andi	r16,r16,255
    101c:	8000271e 	bne	r16,zero,10bc <esp8266_init+0xd0>
        IOWR_ALTERA_AVALON_PIO_DATA(NIOS_SYSTEM_WIFI_RESET_PIO_BASE, 1);
        usleep(3 * 1000 * 1000);
        esp8266_dump_rx();
    }
    //char ssid[20], passwd[20];
    esp8266_send_command("AT+CWMODE_CUR=1");
    1020:	010000b4 	movhi	r4,2
    1024:	21387604 	addi	r4,r4,-7720
    1028:	0000df00 	call	df0 <esp8266_send_command>
    esp8266_send_command("AT+CWLAPOPT=1,0x2");
    102c:	010000b4 	movhi	r4,2
    1030:	21387a04 	addi	r4,r4,-7704
    1034:	0000df00 	call	df0 <esp8266_send_command>
    //printf("\n");
    //printf("Enter the Password of Network Name (SSID): ");
    //scanf("%s", passwd);
    //printf("\n");

    printf("Connecting to WiFi AP (SSID: %s)\n", ssid);
    1038:	014000b4 	movhi	r5,2
    103c:	010000b4 	movhi	r4,2
    1040:	29787f04 	addi	r5,r5,-7684
    1044:	21388204 	addi	r4,r4,-7672
    1048:	000b3ac0 	call	b3ac <printf>
    char cmd[100];
    sprintf(cmd, "AT+CWJAP_CUR=\"%s\",\"%s\"", ssid, passwd);
    104c:	01c000b4 	movhi	r7,2
    1050:	018000b4 	movhi	r6,2
    1054:	014000b4 	movhi	r5,2
    1058:	39f88b04 	addi	r7,r7,-7636
    105c:	31b87f04 	addi	r6,r6,-7684
    1060:	29789104 	addi	r5,r5,-7612
    1064:	d809883a 	mov	r4,sp
    1068:	000b7780 	call	b778 <sprintf>
    bSuccess = esp8266_send_command(cmd);
    106c:	d809883a 	mov	r4,sp
    1070:	0000df00 	call	df0 <esp8266_send_command>
    if (bSuccess) {
    1074:	10803fcc 	andi	r2,r2,255
    1078:	1000081e 	bne	r2,zero,109c <esp8266_init+0xb0>
        printf("Connect to WiFi AP successfully\n");
    } else {
        printf("Connect to WiFi AP failed\n");
    107c:	010000b4 	movhi	r4,2
    1080:	21389f04 	addi	r4,r4,-7556
    1084:	000b4c80 	call	b4c8 <puts>
    1088:	0005883a 	mov	r2,zero
    }

    return bSuccess;
}
    108c:	dfc01a17 	ldw	ra,104(sp)
    1090:	dc001917 	ldw	r16,100(sp)
    1094:	dec01b04 	addi	sp,sp,108
    1098:	f800283a 	ret
    printf("Connecting to WiFi AP (SSID: %s)\n", ssid);
    char cmd[100];
    sprintf(cmd, "AT+CWJAP_CUR=\"%s\",\"%s\"", ssid, passwd);
    bSuccess = esp8266_send_command(cmd);
    if (bSuccess) {
        printf("Connect to WiFi AP successfully\n");
    109c:	010000b4 	movhi	r4,2
    10a0:	21389704 	addi	r4,r4,-7588
    10a4:	000b4c80 	call	b4c8 <puts>
    10a8:	00800044 	movi	r2,1
    } else {
        printf("Connect to WiFi AP failed\n");
    }

    return bSuccess;
}
    10ac:	dfc01a17 	ldw	ra,104(sp)
    10b0:	dc001917 	ldw	r16,100(sp)
    10b4:	dec01b04 	addi	sp,sp,108
    10b8:	f800283a 	ret
    if (esp8266_file == NULL) {
        printf("Open UART_0 failed\n");
        return false;
    }
    if (reset) {
        IOWR_ALTERA_AVALON_PIO_DATA(NIOS_SYSTEM_WIFI_RESET_PIO_BASE, 0);
    10bc:	04000134 	movhi	r16,4
    10c0:	84042804 	addi	r16,r16,4256
    10c4:	80000035 	stwio	zero,0(r16)
        usleep(50);
    10c8:	01000c84 	movi	r4,50
    10cc:	001b9f40 	call	1b9f4 <usleep>
        IOWR_ALTERA_AVALON_PIO_DATA(NIOS_SYSTEM_WIFI_RESET_PIO_BASE, 1);
    10d0:	00800044 	movi	r2,1
    10d4:	80800035 	stwio	r2,0(r16)
        usleep(3 * 1000 * 1000);
    10d8:	01000bb4 	movhi	r4,46
    10dc:	2131b004 	addi	r4,r4,-14656
    10e0:	001b9f40 	call	1b9f4 <usleep>
        esp8266_dump_rx();
    10e4:	0000fa80 	call	fa8 <esp8266_dump_rx>
    10e8:	003fcd06 	br	1020 <__alt_mem_nios_system_shared_memory+0xfffc1020>
bool esp8266_init(bool reset)
{
    bool bSuccess = true;
    esp8266_file = fopen(esp8266_uart, "rw+");
    if (esp8266_file == NULL) {
        printf("Open UART_0 failed\n");
    10ec:	010000b4 	movhi	r4,2
    10f0:	21387104 	addi	r4,r4,-7740
    10f4:	000b4c80 	call	b4c8 <puts>
        return false;
    10f8:	0005883a 	mov	r2,zero
    10fc:	003fe306 	br	108c <__alt_mem_nios_system_shared_memory+0xfffc108c>

00001100 <Light_Init>:
void Light_Init(alt_u32 I2C_Controller_Base){
	const int Ref_CLK = 50*1000*1000; // 50MHz
	const int I2C_CLK = 400*1000; // 400KHz

	Light_I2C_Controller_Base = I2C_Controller_Base;
	oc_i2c_init_ex(Light_I2C_Controller_Base, Ref_CLK, I2C_CLK);
    1100:	018001b4 	movhi	r6,6
    1104:	0140bef4 	movhi	r5,763
    1108:	3186a004 	addi	r6,r6,6784
    110c:	297c2004 	addi	r5,r5,-3968

void Light_Init(alt_u32 I2C_Controller_Base){
	const int Ref_CLK = 50*1000*1000; // 50MHz
	const int I2C_CLK = 400*1000; // 400KHz

	Light_I2C_Controller_Base = I2C_Controller_Base;
    1110:	d1200015 	stw	r4,-32768(gp)
	oc_i2c_init_ex(Light_I2C_Controller_Base, Ref_CLK, I2C_CLK);
    1114:	00002a01 	jmpi	2a0 <oc_i2c_init_ex>

00001118 <Light_GetID>:
}

void Light_GetID(alt_u8 *data)
{
    1118:	defffd04 	addi	sp,sp,-12
    111c:	dc000115 	stw	r16,4(sp)
}

bool I2C_Read_Light(alt_8 DeviceAddr, alt_u8 CommandCode, alt_u8 *pControlData){
    bool bSuccess;

    bSuccess = OC_I2C_Read(Light_I2C_Controller_Base,DeviceAddr,CommandCode, pControlData, 1);
    1120:	200f883a 	mov	r7,r4
	Light_I2C_Controller_Base = I2C_Controller_Base;
	oc_i2c_init_ex(Light_I2C_Controller_Base, Ref_CLK, I2C_CLK);
}

void Light_GetID(alt_u8 *data)
{
    1124:	2021883a 	mov	r16,r4
}

bool I2C_Read_Light(alt_8 DeviceAddr, alt_u8 CommandCode, alt_u8 *pControlData){
    bool bSuccess;

    bSuccess = OC_I2C_Read(Light_I2C_Controller_Base,DeviceAddr,CommandCode, pControlData, 1);
    1128:	d1200017 	ldw	r4,-32768(gp)
    112c:	00800044 	movi	r2,1
    1130:	d8800015 	stw	r2,0(sp)
    1134:	01802284 	movi	r6,138
    1138:	01401484 	movi	r5,82
	Light_I2C_Controller_Base = I2C_Controller_Base;
	oc_i2c_init_ex(Light_I2C_Controller_Base, Ref_CLK, I2C_CLK);
}

void Light_GetID(alt_u8 *data)
{
    113c:	dfc00215 	stw	ra,8(sp)
}

bool I2C_Read_Light(alt_8 DeviceAddr, alt_u8 CommandCode, alt_u8 *pControlData){
    bool bSuccess;

    bSuccess = OC_I2C_Read(Light_I2C_Controller_Base,DeviceAddr,CommandCode, pControlData, 1);
    1140:	00005e80 	call	5e8 <OC_I2C_Read>
{
    bool bPass;
    alt_u8 CommandCode = COMMAND_CMD | ID_REG ;
    //read ID
    bPass = I2C_Read_Light( DEVICE_ADDR,CommandCode , data);
    if(!bPass)  *data = 0;
    1144:	10803fcc 	andi	r2,r2,255
    1148:	1000011e 	bne	r2,zero,1150 <Light_GetID+0x38>
    114c:	80000005 	stb	zero,0(r16)

}
    1150:	dfc00217 	ldw	ra,8(sp)
    1154:	dc000117 	ldw	r16,4(sp)
    1158:	dec00304 	addi	sp,sp,12
    115c:	f800283a 	ret

00001160 <Light_GetTiming>:

void Light_GetTiming(alt_u8 *data)
{
    1160:	defffd04 	addi	sp,sp,-12
    1164:	dc000115 	stw	r16,4(sp)
}

bool I2C_Read_Light(alt_8 DeviceAddr, alt_u8 CommandCode, alt_u8 *pControlData){
    bool bSuccess;

    bSuccess = OC_I2C_Read(Light_I2C_Controller_Base,DeviceAddr,CommandCode, pControlData, 1);
    1168:	200f883a 	mov	r7,r4
    if(!bPass)  *data = 0;

}

void Light_GetTiming(alt_u8 *data)
{
    116c:	2021883a 	mov	r16,r4
}

bool I2C_Read_Light(alt_8 DeviceAddr, alt_u8 CommandCode, alt_u8 *pControlData){
    bool bSuccess;

    bSuccess = OC_I2C_Read(Light_I2C_Controller_Base,DeviceAddr,CommandCode, pControlData, 1);
    1170:	d1200017 	ldw	r4,-32768(gp)
    1174:	00800044 	movi	r2,1
    1178:	d8800015 	stw	r2,0(sp)
    117c:	01802044 	movi	r6,129
    1180:	01401484 	movi	r5,82
    if(!bPass)  *data = 0;

}

void Light_GetTiming(alt_u8 *data)
{
    1184:	dfc00215 	stw	ra,8(sp)
}

bool I2C_Read_Light(alt_8 DeviceAddr, alt_u8 CommandCode, alt_u8 *pControlData){
    bool bSuccess;

    bSuccess = OC_I2C_Read(Light_I2C_Controller_Base,DeviceAddr,CommandCode, pControlData, 1);
    1188:	00005e80 	call	5e8 <OC_I2C_Read>
{
    bool bPass;
    alt_u8 CommandCode = COMMAND_CMD | TIMING_REG ;
    //read ID
    bPass = I2C_Read_Light( DEVICE_ADDR,CommandCode , data);
    if(!bPass)  *data = 0;
    118c:	10803fcc 	andi	r2,r2,255
    1190:	1000011e 	bne	r2,zero,1198 <Light_GetTiming+0x38>
    1194:	80000005 	stb	zero,0(r16)

}
    1198:	dfc00217 	ldw	ra,8(sp)
    119c:	dc000117 	ldw	r16,4(sp)
    11a0:	dec00304 	addi	sp,sp,12
    11a4:	f800283a 	ret

000011a8 <Light_PowerSwitch>:

bool Light_PowerSwitch(bool bSwitch)
{
    11a8:	defffd04 	addi	sp,sp,-12
    11ac:	dfc00215 	stw	ra,8(sp)
    bool bPass;
    alt_u8 data = 0;
    alt_u8 CommandCode = COMMAND_CMD | CONTROL_REG ;

    data = bSwitch ? 0x03 : 0x00 ;
    11b0:	21003fcc 	andi	r4,r4,255
    11b4:	20000c1e 	bne	r4,zero,11e8 <Light_PowerSwitch+0x40>
    11b8:	0005883a 	mov	r2,zero
// internal
////////////////light sensor
bool I2C_Write_Light(alt_8 DeviceAddr, alt_u8 CommandCode, alt_u8 ControlData){
	bool bSuccess;

	bSuccess = OC_I2C_Write(Light_I2C_Controller_Base,DeviceAddr,CommandCode, &ControlData, 1);
    11bc:	d1200017 	ldw	r4,-32768(gp)
    11c0:	00c00044 	movi	r3,1
    11c4:	d8c00015 	stw	r3,0(sp)
    11c8:	d9c00104 	addi	r7,sp,4
    11cc:	01802004 	movi	r6,128
    11d0:	01401484 	movi	r5,82
    11d4:	d8800105 	stb	r2,4(sp)
    11d8:	00004640 	call	464 <OC_I2C_Write>
    data = bSwitch ? 0x03 : 0x00 ;

    bPass = I2C_Write_Light( DEVICE_ADDR,CommandCode , data);

    return bPass;
}
    11dc:	dfc00217 	ldw	ra,8(sp)
    11e0:	dec00304 	addi	sp,sp,12
    11e4:	f800283a 	ret
{
    bool bPass;
    alt_u8 data = 0;
    alt_u8 CommandCode = COMMAND_CMD | CONTROL_REG ;

    data = bSwitch ? 0x03 : 0x00 ;
    11e8:	008000c4 	movi	r2,3
    11ec:	003ff306 	br	11bc <__alt_mem_nios_system_shared_memory+0xfffc11bc>

000011f0 <Light_Get_ADCData0>:

    return bPass;
}

bool Light_Get_ADCData0(alt_u16 *pChannelData)
{
    11f0:	defffb04 	addi	sp,sp,-20
    11f4:	dc400315 	stw	r17,12(sp)
    11f8:	2023883a 	mov	r17,r4
}

bool I2C_Read_Light(alt_8 DeviceAddr, alt_u8 CommandCode, alt_u8 *pControlData){
    bool bSuccess;

    bSuccess = OC_I2C_Read(Light_I2C_Controller_Base,DeviceAddr,CommandCode, pControlData, 1);
    11fc:	d1200017 	ldw	r4,-32768(gp)

    return bPass;
}

bool Light_Get_ADCData0(alt_u16 *pChannelData)
{
    1200:	dc000215 	stw	r16,8(sp)
}

bool I2C_Read_Light(alt_8 DeviceAddr, alt_u8 CommandCode, alt_u8 *pControlData){
    bool bSuccess;

    bSuccess = OC_I2C_Read(Light_I2C_Controller_Base,DeviceAddr,CommandCode, pControlData, 1);
    1204:	04000044 	movi	r16,1
    1208:	dc000015 	stw	r16,0(sp)
    120c:	d9c00144 	addi	r7,sp,5
    1210:	01802304 	movi	r6,140
    1214:	01401484 	movi	r5,82

    return bPass;
}

bool Light_Get_ADCData0(alt_u16 *pChannelData)
{
    1218:	dfc00415 	stw	ra,16(sp)
}

bool I2C_Read_Light(alt_8 DeviceAddr, alt_u8 CommandCode, alt_u8 *pControlData){
    bool bSuccess;

    bSuccess = OC_I2C_Read(Light_I2C_Controller_Base,DeviceAddr,CommandCode, pControlData, 1);
    121c:	00005e80 	call	5e8 <OC_I2C_Read>
    alt_u8 Data0Low, Data0High;
    alt_u8 CommandCode = COMMAND_CMD |  DATA0LOW ;
    //alt_u8 CommandCode = 0x8C;

    bPass = I2C_Read_Light( DEVICE_ADDR,CommandCode , &Data0Low);
    if(!bPass)
    1220:	10803fcc 	andi	r2,r2,255
    1224:	10001726 	beq	r2,zero,1284 <Light_Get_ADCData0+0x94>
    {
         return FALSE;
    }
    else *pChannelData = Data0Low;
    1228:	d8800143 	ldbu	r2,5(sp)
}

bool I2C_Read_Light(alt_8 DeviceAddr, alt_u8 CommandCode, alt_u8 *pControlData){
    bool bSuccess;

    bSuccess = OC_I2C_Read(Light_I2C_Controller_Base,DeviceAddr,CommandCode, pControlData, 1);
    122c:	d1200017 	ldw	r4,-32768(gp)
    1230:	dc000015 	stw	r16,0(sp)
    bPass = I2C_Read_Light( DEVICE_ADDR,CommandCode , &Data0Low);
    if(!bPass)
    {
         return FALSE;
    }
    else *pChannelData = Data0Low;
    1234:	8880000d 	sth	r2,0(r17)
}

bool I2C_Read_Light(alt_8 DeviceAddr, alt_u8 CommandCode, alt_u8 *pControlData){
    bool bSuccess;

    bSuccess = OC_I2C_Read(Light_I2C_Controller_Base,DeviceAddr,CommandCode, pControlData, 1);
    1238:	d9c00104 	addi	r7,sp,4
    123c:	01802344 	movi	r6,141
    1240:	01401484 	movi	r5,82
    1244:	00005e80 	call	5e8 <OC_I2C_Read>
    {
        CommandCode = COMMAND_CMD |  DATA0HIGH ;
        //CommandCode = 0x8D;

        bPass = I2C_Read_Light( DEVICE_ADDR,CommandCode , &Data0High);
        if(!bPass)
    1248:	10803fcc 	andi	r2,r2,255
    124c:	10000d26 	beq	r2,zero,1284 <Light_Get_ADCData0+0x94>
            return FALSE;
        }
        else *(pChannelData+1) = Data0High;
    }

    *pChannelData = (Data0High << 8) | Data0Low;
    1250:	d8c00103 	ldbu	r3,4(sp)
    1254:	d9000143 	ldbu	r4,5(sp)

    return TRUE;
    1258:	8005883a 	mov	r2,r16
            return FALSE;
        }
        else *(pChannelData+1) = Data0High;
    }

    *pChannelData = (Data0High << 8) | Data0Low;
    125c:	180a923a 	slli	r5,r3,8
        bPass = I2C_Read_Light( DEVICE_ADDR,CommandCode , &Data0High);
        if(!bPass)
        {
            return FALSE;
        }
        else *(pChannelData+1) = Data0High;
    1260:	d8c00103 	ldbu	r3,4(sp)
    1264:	88c0008d 	sth	r3,2(r17)
    }

    *pChannelData = (Data0High << 8) | Data0Low;
    1268:	2906b03a 	or	r3,r5,r4
    126c:	88c0000d 	sth	r3,0(r17)

    return TRUE;
}
    1270:	dfc00417 	ldw	ra,16(sp)
    1274:	dc400317 	ldw	r17,12(sp)
    1278:	dc000217 	ldw	r16,8(sp)
    127c:	dec00504 	addi	sp,sp,20
    1280:	f800283a 	ret
    //alt_u8 CommandCode = 0x8C;

    bPass = I2C_Read_Light( DEVICE_ADDR,CommandCode , &Data0Low);
    if(!bPass)
    {
         return FALSE;
    1284:	0005883a 	mov	r2,zero
    1288:	003ff906 	br	1270 <__alt_mem_nios_system_shared_memory+0xfffc1270>

0000128c <Light_Get_ADCData1>:

    return TRUE;
}

bool Light_Get_ADCData1(alt_u16 *pChannelData)
{
    128c:	defffb04 	addi	sp,sp,-20
    1290:	dc400315 	stw	r17,12(sp)
    1294:	2023883a 	mov	r17,r4
}

bool I2C_Read_Light(alt_8 DeviceAddr, alt_u8 CommandCode, alt_u8 *pControlData){
    bool bSuccess;

    bSuccess = OC_I2C_Read(Light_I2C_Controller_Base,DeviceAddr,CommandCode, pControlData, 1);
    1298:	d1200017 	ldw	r4,-32768(gp)

    return TRUE;
}

bool Light_Get_ADCData1(alt_u16 *pChannelData)
{
    129c:	dc000215 	stw	r16,8(sp)
}

bool I2C_Read_Light(alt_8 DeviceAddr, alt_u8 CommandCode, alt_u8 *pControlData){
    bool bSuccess;

    bSuccess = OC_I2C_Read(Light_I2C_Controller_Base,DeviceAddr,CommandCode, pControlData, 1);
    12a0:	04000044 	movi	r16,1
    12a4:	dc000015 	stw	r16,0(sp)
    12a8:	d9c00144 	addi	r7,sp,5
    12ac:	01802384 	movi	r6,142
    12b0:	01401484 	movi	r5,82

    return TRUE;
}

bool Light_Get_ADCData1(alt_u16 *pChannelData)
{
    12b4:	dfc00415 	stw	ra,16(sp)
}

bool I2C_Read_Light(alt_8 DeviceAddr, alt_u8 CommandCode, alt_u8 *pControlData){
    bool bSuccess;

    bSuccess = OC_I2C_Read(Light_I2C_Controller_Base,DeviceAddr,CommandCode, pControlData, 1);
    12b8:	00005e80 	call	5e8 <OC_I2C_Read>
    bool bPass;
    alt_u8 Data1Low, Data1High;
    alt_u8 CommandCode = COMMAND_CMD |  DATA1LOW ;

    bPass = I2C_Read_Light( DEVICE_ADDR,CommandCode , &Data1Low);
    if(!bPass)
    12bc:	10803fcc 	andi	r2,r2,255
    12c0:	10001726 	beq	r2,zero,1320 <Light_Get_ADCData1+0x94>
    {
         return FALSE;
    }
    else *pChannelData = Data1Low;
    12c4:	d8800143 	ldbu	r2,5(sp)
}

bool I2C_Read_Light(alt_8 DeviceAddr, alt_u8 CommandCode, alt_u8 *pControlData){
    bool bSuccess;

    bSuccess = OC_I2C_Read(Light_I2C_Controller_Base,DeviceAddr,CommandCode, pControlData, 1);
    12c8:	d1200017 	ldw	r4,-32768(gp)
    12cc:	dc000015 	stw	r16,0(sp)
    bPass = I2C_Read_Light( DEVICE_ADDR,CommandCode , &Data1Low);
    if(!bPass)
    {
         return FALSE;
    }
    else *pChannelData = Data1Low;
    12d0:	8880000d 	sth	r2,0(r17)
}

bool I2C_Read_Light(alt_8 DeviceAddr, alt_u8 CommandCode, alt_u8 *pControlData){
    bool bSuccess;

    bSuccess = OC_I2C_Read(Light_I2C_Controller_Base,DeviceAddr,CommandCode, pControlData, 1);
    12d4:	d9c00104 	addi	r7,sp,4
    12d8:	018023c4 	movi	r6,143
    12dc:	01401484 	movi	r5,82
    12e0:	00005e80 	call	5e8 <OC_I2C_Read>
    if(bPass)
    {
        CommandCode = COMMAND_CMD |  DATA1HIGH ;

        bPass = I2C_Read_Light(DEVICE_ADDR,CommandCode , &Data1High);
        if(!bPass)
    12e4:	10803fcc 	andi	r2,r2,255
    12e8:	10000d26 	beq	r2,zero,1320 <Light_Get_ADCData1+0x94>
            return FALSE;
        }
        else *(pChannelData+1) = Data1High;
    }

    *pChannelData = (Data1High << 8) | Data1Low;
    12ec:	d8c00103 	ldbu	r3,4(sp)
    12f0:	d9000143 	ldbu	r4,5(sp)

    return TRUE;
    12f4:	8005883a 	mov	r2,r16
            return FALSE;
        }
        else *(pChannelData+1) = Data1High;
    }

    *pChannelData = (Data1High << 8) | Data1Low;
    12f8:	180a923a 	slli	r5,r3,8
        bPass = I2C_Read_Light(DEVICE_ADDR,CommandCode , &Data1High);
        if(!bPass)
        {
            return FALSE;
        }
        else *(pChannelData+1) = Data1High;
    12fc:	d8c00103 	ldbu	r3,4(sp)
    1300:	88c0008d 	sth	r3,2(r17)
    }

    *pChannelData = (Data1High << 8) | Data1Low;
    1304:	2906b03a 	or	r3,r5,r4
    1308:	88c0000d 	sth	r3,0(r17)

    return TRUE;
}
    130c:	dfc00417 	ldw	ra,16(sp)
    1310:	dc400317 	ldw	r17,12(sp)
    1314:	dc000217 	ldw	r16,8(sp)
    1318:	dec00504 	addi	sp,sp,20
    131c:	f800283a 	ret
    alt_u8 CommandCode = COMMAND_CMD |  DATA1LOW ;

    bPass = I2C_Read_Light( DEVICE_ADDR,CommandCode , &Data1Low);
    if(!bPass)
    {
         return FALSE;
    1320:	0005883a 	mov	r2,zero
    1324:	003ff906 	br	130c <__alt_mem_nios_system_shared_memory+0xfffc130c>

00001328 <Get_light>:

    return TRUE;
}

bool Get_light(alt_u16 *light0, alt_u16 *light1)
{
    1328:	defffb04 	addi	sp,sp,-20
    132c:	dc000215 	stw	r16,8(sp)
    1330:	2021883a 	mov	r16,r4

    alt_u16 ChannelData0;
    alt_u16 ChannelData1;

    //get light sensor Id
    Light_GetID(&device_Id);
    1334:	d9000104 	addi	r4,sp,4

    return TRUE;
}

bool Get_light(alt_u16 *light0, alt_u16 *light1)
{
    1338:	dc400315 	stw	r17,12(sp)
    133c:	dfc00415 	stw	ra,16(sp)
    1340:	2823883a 	mov	r17,r5
    bool bPass = FALSE;
    alt_u8 device_Id = 0;
    1344:	d8000105 	stb	zero,4(sp)

    alt_u16 ChannelData0;
    alt_u16 ChannelData1;

    //get light sensor Id
    Light_GetID(&device_Id);
    1348:	00011180 	call	1118 <Light_GetID>
    if(device_Id == 0)
    134c:	d8800103 	ldbu	r2,4(sp)
    1350:	10001726 	beq	r2,zero,13b0 <Get_light+0x88>
    	//printf("Light Sensor ID=%xh\r\n", device_Id); //
    }


    //get adc channel 0 data
    bPass = Light_Get_ADCData0(&ChannelData0);
    1354:	d9000084 	addi	r4,sp,2
    1358:	00011f00 	call	11f0 <Light_Get_ADCData0>
    if(!bPass)
    135c:	10803fcc 	andi	r2,r2,255
    1360:	10000e26 	beq	r2,zero,139c <Get_light+0x74>
    {
        printf("Get ADC Channle 0 data fail \n");
        return FALSE;
    }
    *light0 = ChannelData0;
    1364:	d880008b 	ldhu	r2,2(sp)

    //get adc channel 1 data
    bPass = Light_Get_ADCData1(&ChannelData1);
    1368:	d809883a 	mov	r4,sp
    if(!bPass)
    {
        printf("Get ADC Channle 0 data fail \n");
        return FALSE;
    }
    *light0 = ChannelData0;
    136c:	8080000d 	sth	r2,0(r16)

    //get adc channel 1 data
    bPass = Light_Get_ADCData1(&ChannelData1);
    1370:	000128c0 	call	128c <Light_Get_ADCData1>
    if(!bPass)
    1374:	10803fcc 	andi	r2,r2,255
    1378:	10001226 	beq	r2,zero,13c4 <Get_light+0x9c>
    {
        printf("Get ADC Channle 1 data fail \n");
        return FALSE;
    }
    *light1 = ChannelData1;
    137c:	d8c0000b 	ldhu	r3,0(sp)
    return TRUE;
    1380:	00800044 	movi	r2,1
    if(!bPass)
    {
        printf("Get ADC Channle 1 data fail \n");
        return FALSE;
    }
    *light1 = ChannelData1;
    1384:	88c0000d 	sth	r3,0(r17)
    return TRUE;
}
    1388:	dfc00417 	ldw	ra,16(sp)
    138c:	dc400317 	ldw	r17,12(sp)
    1390:	dc000217 	ldw	r16,8(sp)
    1394:	dec00504 	addi	sp,sp,20
    1398:	f800283a 	ret

    //get adc channel 0 data
    bPass = Light_Get_ADCData0(&ChannelData0);
    if(!bPass)
    {
        printf("Get ADC Channle 0 data fail \n");
    139c:	010000b4 	movhi	r4,2
    13a0:	2138aa04 	addi	r4,r4,-7512
    13a4:	000b4c80 	call	b4c8 <puts>
        return FALSE;
    13a8:	0005883a 	mov	r2,zero
    13ac:	003ff606 	br	1388 <__alt_mem_nios_system_shared_memory+0xfffc1388>

    //get light sensor Id
    Light_GetID(&device_Id);
    if(device_Id == 0)
    {
        printf("read id fail \n");
    13b0:	010000b4 	movhi	r4,2
    13b4:	2138a604 	addi	r4,r4,-7528
    13b8:	000b4c80 	call	b4c8 <puts>
        return FALSE;
    13bc:	0005883a 	mov	r2,zero
    13c0:	003ff106 	br	1388 <__alt_mem_nios_system_shared_memory+0xfffc1388>

    //get adc channel 1 data
    bPass = Light_Get_ADCData1(&ChannelData1);
    if(!bPass)
    {
        printf("Get ADC Channle 1 data fail \n");
    13c4:	010000b4 	movhi	r4,2
    13c8:	2138b204 	addi	r4,r4,-7480
    13cc:	000b4c80 	call	b4c8 <puts>
        return FALSE;
    13d0:	0005883a 	mov	r2,zero
    13d4:	003fec06 	br	1388 <__alt_mem_nios_system_shared_memory+0xfffc1388>

000013d8 <Light_SetThreshLow>:
}

bool I2C_Write_Light16(alt_8 DeviceAddr, alt_u8 CommandCode, alt_u8 *pControlData){
	bool bSuccess;

	bSuccess = OC_I2C_Write(Light_I2C_Controller_Base,DeviceAddr,CommandCode, pControlData, 2);
    13d8:	200f883a 	mov	r7,r4
    13dc:	d1200017 	ldw	r4,-32768(gp)
    return TRUE;
}


bool Light_SetThreshLow(alt_u8 *pData)
{
    13e0:	defffe04 	addi	sp,sp,-8
}

bool I2C_Write_Light16(alt_8 DeviceAddr, alt_u8 CommandCode, alt_u8 *pControlData){
	bool bSuccess;

	bSuccess = OC_I2C_Write(Light_I2C_Controller_Base,DeviceAddr,CommandCode, pControlData, 2);
    13e4:	00800084 	movi	r2,2
    13e8:	d8800015 	stw	r2,0(sp)
    13ec:	01802884 	movi	r6,162
    13f0:	01401484 	movi	r5,82
    return TRUE;
}


bool Light_SetThreshLow(alt_u8 *pData)
{
    13f4:	dfc00115 	stw	ra,4(sp)
}

bool I2C_Write_Light16(alt_8 DeviceAddr, alt_u8 CommandCode, alt_u8 *pControlData){
	bool bSuccess;

	bSuccess = OC_I2C_Write(Light_I2C_Controller_Base,DeviceAddr,CommandCode, pControlData, 2);
    13f8:	00004640 	call	464 <OC_I2C_Write>
//        data = *(pData+1);
//        bPass = I2C_Write_Light(LIGHT_SENSOR_SCL_BASE, LIGHT_SENSOR_SDA_BASE, DEVICE_ADDR,CommandCode , data);
//    }

    return bPass;
}
    13fc:	dfc00117 	ldw	ra,4(sp)
    1400:	dec00204 	addi	sp,sp,8
    1404:	f800283a 	ret

00001408 <Light_SetThreshHigh>:
}

bool I2C_Write_Light16(alt_8 DeviceAddr, alt_u8 CommandCode, alt_u8 *pControlData){
	bool bSuccess;

	bSuccess = OC_I2C_Write(Light_I2C_Controller_Base,DeviceAddr,CommandCode, pControlData, 2);
    1408:	200f883a 	mov	r7,r4
    140c:	d1200017 	ldw	r4,-32768(gp)

    return bPass;
}

bool Light_SetThreshHigh(alt_u8 *pData)
{
    1410:	defffe04 	addi	sp,sp,-8
}

bool I2C_Write_Light16(alt_8 DeviceAddr, alt_u8 CommandCode, alt_u8 *pControlData){
	bool bSuccess;

	bSuccess = OC_I2C_Write(Light_I2C_Controller_Base,DeviceAddr,CommandCode, pControlData, 2);
    1414:	00800084 	movi	r2,2
    1418:	d8800015 	stw	r2,0(sp)
    141c:	01802904 	movi	r6,164
    1420:	01401484 	movi	r5,82

    return bPass;
}

bool Light_SetThreshHigh(alt_u8 *pData)
{
    1424:	dfc00115 	stw	ra,4(sp)
}

bool I2C_Write_Light16(alt_8 DeviceAddr, alt_u8 CommandCode, alt_u8 *pControlData){
	bool bSuccess;

	bSuccess = OC_I2C_Write(Light_I2C_Controller_Base,DeviceAddr,CommandCode, pControlData, 2);
    1428:	00004640 	call	464 <OC_I2C_Write>
//        data = *(pData+1);
//        bPass = I2C_Write_Light(LIGHT_SENSOR_SCL_BASE, LIGHT_SENSOR_SDA_BASE, DEVICE_ADDR,CommandCode , data);
//    }

    return bPass;
}
    142c:	dfc00117 	ldw	ra,4(sp)
    1430:	dec00204 	addi	sp,sp,8
    1434:	f800283a 	ret

00001438 <Light_SetInterrupt>:

bool Light_SetInterrupt(alt_u8 data)
{
    1438:	defffd04 	addi	sp,sp,-12
    143c:	d9000105 	stb	r4,4(sp)
// internal
////////////////light sensor
bool I2C_Write_Light(alt_8 DeviceAddr, alt_u8 CommandCode, alt_u8 ControlData){
	bool bSuccess;

	bSuccess = OC_I2C_Write(Light_I2C_Controller_Base,DeviceAddr,CommandCode, &ControlData, 1);
    1440:	d1200017 	ldw	r4,-32768(gp)
    1444:	00800044 	movi	r2,1
    1448:	d8800015 	stw	r2,0(sp)
    144c:	d9c00104 	addi	r7,sp,4
    1450:	01802184 	movi	r6,134
    1454:	01401484 	movi	r5,82

    return bPass;
}

bool Light_SetInterrupt(alt_u8 data)
{
    1458:	dfc00215 	stw	ra,8(sp)
// internal
////////////////light sensor
bool I2C_Write_Light(alt_8 DeviceAddr, alt_u8 CommandCode, alt_u8 ControlData){
	bool bSuccess;

	bSuccess = OC_I2C_Write(Light_I2C_Controller_Base,DeviceAddr,CommandCode, &ControlData, 1);
    145c:	00004640 	call	464 <OC_I2C_Write>
    alt_u8 CommandCode = COMMAND_CMD | INTERRUPT_REG ;

    bPass = I2C_Write_Light(DEVICE_ADDR,CommandCode , data);

    return bPass;
}
    1460:	dfc00217 	ldw	ra,8(sp)
    1464:	dec00304 	addi	sp,sp,12
    1468:	f800283a 	ret

0000146c <Light_GetInterrupt>:

void Light_GetInterrupt(alt_u8 *data)
{
    146c:	defffd04 	addi	sp,sp,-12
    1470:	dc000115 	stw	r16,4(sp)
}

bool I2C_Read_Light(alt_8 DeviceAddr, alt_u8 CommandCode, alt_u8 *pControlData){
    bool bSuccess;

    bSuccess = OC_I2C_Read(Light_I2C_Controller_Base,DeviceAddr,CommandCode, pControlData, 1);
    1474:	200f883a 	mov	r7,r4

    return bPass;
}

void Light_GetInterrupt(alt_u8 *data)
{
    1478:	2021883a 	mov	r16,r4
}

bool I2C_Read_Light(alt_8 DeviceAddr, alt_u8 CommandCode, alt_u8 *pControlData){
    bool bSuccess;

    bSuccess = OC_I2C_Read(Light_I2C_Controller_Base,DeviceAddr,CommandCode, pControlData, 1);
    147c:	d1200017 	ldw	r4,-32768(gp)
    1480:	00800044 	movi	r2,1
    1484:	d8800015 	stw	r2,0(sp)
    1488:	01802184 	movi	r6,134
    148c:	01401484 	movi	r5,82

    return bPass;
}

void Light_GetInterrupt(alt_u8 *data)
{
    1490:	dfc00215 	stw	ra,8(sp)
}

bool I2C_Read_Light(alt_8 DeviceAddr, alt_u8 CommandCode, alt_u8 *pControlData){
    bool bSuccess;

    bSuccess = OC_I2C_Read(Light_I2C_Controller_Base,DeviceAddr,CommandCode, pControlData, 1);
    1494:	00005e80 	call	5e8 <OC_I2C_Read>
{
    bool bPass;
    alt_u8 CommandCode = COMMAND_CMD | INTERRUPT_REG ;
    //read ID
    bPass = I2C_Read_Light( DEVICE_ADDR,CommandCode , data);
    if(!bPass)  *data = 0;
    1498:	10803fcc 	andi	r2,r2,255
    149c:	1000011e 	bne	r2,zero,14a4 <Light_GetInterrupt+0x38>
    14a0:	80000005 	stb	zero,0(r16)
}
    14a4:	dfc00217 	ldw	ra,8(sp)
    14a8:	dc000117 	ldw	r16,4(sp)
    14ac:	dec00304 	addi	sp,sp,12
    14b0:	f800283a 	ret

000014b4 <Light_SetTiming>:

bool Light_SetTiming(alt_u8 data)
{
    14b4:	defffd04 	addi	sp,sp,-12
    14b8:	d9000105 	stb	r4,4(sp)
// internal
////////////////light sensor
bool I2C_Write_Light(alt_8 DeviceAddr, alt_u8 CommandCode, alt_u8 ControlData){
	bool bSuccess;

	bSuccess = OC_I2C_Write(Light_I2C_Controller_Base,DeviceAddr,CommandCode, &ControlData, 1);
    14bc:	d1200017 	ldw	r4,-32768(gp)
    14c0:	00800044 	movi	r2,1
    14c4:	d8800015 	stw	r2,0(sp)
    14c8:	d9c00104 	addi	r7,sp,4
    14cc:	01802044 	movi	r6,129
    14d0:	01401484 	movi	r5,82
    bPass = I2C_Read_Light( DEVICE_ADDR,CommandCode , data);
    if(!bPass)  *data = 0;
}

bool Light_SetTiming(alt_u8 data)
{
    14d4:	dfc00215 	stw	ra,8(sp)
// internal
////////////////light sensor
bool I2C_Write_Light(alt_8 DeviceAddr, alt_u8 CommandCode, alt_u8 ControlData){
	bool bSuccess;

	bSuccess = OC_I2C_Write(Light_I2C_Controller_Base,DeviceAddr,CommandCode, &ControlData, 1);
    14d8:	00004640 	call	464 <OC_I2C_Write>
    alt_u8 CommandCode = COMMAND_CMD | TIMING_REG ;

    bPass = I2C_Write_Light( DEVICE_ADDR,CommandCode , data);

    return bPass;
}
    14dc:	dfc00217 	ldw	ra,8(sp)
    14e0:	dec00304 	addi	sp,sp,12
    14e4:	f800283a 	ret

000014e8 <I2C_Write_Light>:

/////////////////////////////////////////////
// internal
////////////////light sensor
bool I2C_Write_Light(alt_8 DeviceAddr, alt_u8 CommandCode, alt_u8 ControlData){
    14e8:	defffd04 	addi	sp,sp,-12
    14ec:	d9800105 	stb	r6,4(sp)
	bool bSuccess;

	bSuccess = OC_I2C_Write(Light_I2C_Controller_Base,DeviceAddr,CommandCode, &ControlData, 1);
    14f0:	29803fcc 	andi	r6,r5,255
    14f4:	21403fcc 	andi	r5,r4,255
    14f8:	d1200017 	ldw	r4,-32768(gp)
    14fc:	00800044 	movi	r2,1
    1500:	d8800015 	stw	r2,0(sp)
    1504:	d9c00104 	addi	r7,sp,4
}

/////////////////////////////////////////////
// internal
////////////////light sensor
bool I2C_Write_Light(alt_8 DeviceAddr, alt_u8 CommandCode, alt_u8 ControlData){
    1508:	dfc00215 	stw	ra,8(sp)
	bool bSuccess;

	bSuccess = OC_I2C_Write(Light_I2C_Controller_Base,DeviceAddr,CommandCode, &ControlData, 1);
    150c:	00004640 	call	464 <OC_I2C_Write>

    return bSuccess;


}
    1510:	dfc00217 	ldw	ra,8(sp)
    1514:	dec00304 	addi	sp,sp,12
    1518:	f800283a 	ret

0000151c <I2C_Write_Light16>:

bool I2C_Write_Light16(alt_8 DeviceAddr, alt_u8 CommandCode, alt_u8 *pControlData){
	bool bSuccess;

	bSuccess = OC_I2C_Write(Light_I2C_Controller_Base,DeviceAddr,CommandCode, pControlData, 2);
    151c:	300f883a 	mov	r7,r6
    1520:	29803fcc 	andi	r6,r5,255
    1524:	21403fcc 	andi	r5,r4,255
    1528:	d1200017 	ldw	r4,-32768(gp)
    return bSuccess;


}

bool I2C_Write_Light16(alt_8 DeviceAddr, alt_u8 CommandCode, alt_u8 *pControlData){
    152c:	defffe04 	addi	sp,sp,-8
	bool bSuccess;

	bSuccess = OC_I2C_Write(Light_I2C_Controller_Base,DeviceAddr,CommandCode, pControlData, 2);
    1530:	00800084 	movi	r2,2
    1534:	d8800015 	stw	r2,0(sp)
    return bSuccess;


}

bool I2C_Write_Light16(alt_8 DeviceAddr, alt_u8 CommandCode, alt_u8 *pControlData){
    1538:	dfc00115 	stw	ra,4(sp)
	bool bSuccess;

	bSuccess = OC_I2C_Write(Light_I2C_Controller_Base,DeviceAddr,CommandCode, pControlData, 2);
    153c:	00004640 	call	464 <OC_I2C_Write>

    return bSuccess;


}
    1540:	dfc00117 	ldw	ra,4(sp)
    1544:	dec00204 	addi	sp,sp,8
    1548:	f800283a 	ret

0000154c <I2C_Read_Light>:

bool I2C_Read_Light(alt_8 DeviceAddr, alt_u8 CommandCode, alt_u8 *pControlData){
    bool bSuccess;

    bSuccess = OC_I2C_Read(Light_I2C_Controller_Base,DeviceAddr,CommandCode, pControlData, 1);
    154c:	300f883a 	mov	r7,r6
    1550:	29803fcc 	andi	r6,r5,255
    1554:	21403fcc 	andi	r5,r4,255
    1558:	d1200017 	ldw	r4,-32768(gp)
    return bSuccess;


}

bool I2C_Read_Light(alt_8 DeviceAddr, alt_u8 CommandCode, alt_u8 *pControlData){
    155c:	defffe04 	addi	sp,sp,-8
    bool bSuccess;

    bSuccess = OC_I2C_Read(Light_I2C_Controller_Base,DeviceAddr,CommandCode, pControlData, 1);
    1560:	00800044 	movi	r2,1
    1564:	d8800015 	stw	r2,0(sp)
    return bSuccess;


}

bool I2C_Read_Light(alt_8 DeviceAddr, alt_u8 CommandCode, alt_u8 *pControlData){
    1568:	dfc00115 	stw	ra,4(sp)
    bool bSuccess;

    bSuccess = OC_I2C_Read(Light_I2C_Controller_Base,DeviceAddr,CommandCode, pControlData, 1);
    156c:	00005e80 	call	5e8 <OC_I2C_Read>

    return bSuccess;
}
    1570:	dfc00117 	ldw	ra,4(sp)
    1574:	dec00204 	addi	sp,sp,8
    1578:	f800283a 	ret

0000157c <MPU9250_Init>:
void MPU9250_Init(alt_u32 I2C_Controller_Base)
{
	const int ref_clk = 50*1000*1000; // 50Mhz
	const int i2c_clk = 400*1000; // 400KHz
//	MPU9250_I2C_Controller_Base = I2C_Controller_Base;
	oc_i2c_init_ex(I2C_Controller_Base, ref_clk, i2c_clk);
    157c:	018001b4 	movhi	r6,6
    1580:	0140bef4 	movhi	r5,763
    1584:	3186a004 	addi	r6,r6,6784
    1588:	297c2004 	addi	r5,r5,-3968
    158c:	00002a01 	jmpi	2a0 <oc_i2c_init_ex>

00001590 <WriteReg>:
-----------------------------------------------------------------------------------------------*/

unsigned int WriteReg( uint8_t WriteAddr, uint8_t WriteData )
{
#if 1
	if (WriteAddr & READ_FLAG)
    1590:	20803fcc 	andi	r2,r4,255
                                    REGISTER READ & WRITE
usage: use these methods to read and write MPU9250 registers over SPI
-----------------------------------------------------------------------------------------------*/

unsigned int WriteReg( uint8_t WriteAddr, uint8_t WriteData )
{
    1594:	defffc04 	addi	sp,sp,-16
#if 1
	if (WriteAddr & READ_FLAG)
    1598:	1080201c 	xori	r2,r2,128
                                    REGISTER READ & WRITE
usage: use these methods to read and write MPU9250 registers over SPI
-----------------------------------------------------------------------------------------------*/

unsigned int WriteReg( uint8_t WriteAddr, uint8_t WriteData )
{
    159c:	200d883a 	mov	r6,r4
    15a0:	dfc00315 	stw	ra,12(sp)

unsigned int  ReadReg( uint8_t WriteAddr, uint8_t WriteData )
{
#if 1
	unsigned char ReadData;
	OC_I2C_Read(MPU_I2C_OPENCORES_BASE, MPU_DEVICE_ADDR, WriteAddr, &ReadData, sizeof(ReadData));
    15a4:	01000134 	movhi	r4,4
                                    REGISTER READ & WRITE
usage: use these methods to read and write MPU9250 registers over SPI
-----------------------------------------------------------------------------------------------*/

unsigned int WriteReg( uint8_t WriteAddr, uint8_t WriteData )
{
    15a8:	d9400205 	stb	r5,8(sp)
#if 1
	if (WriteAddr & READ_FLAG)
    15ac:	10bfe004 	addi	r2,r2,-128

unsigned int  ReadReg( uint8_t WriteAddr, uint8_t WriteData )
{
#if 1
	unsigned char ReadData;
	OC_I2C_Read(MPU_I2C_OPENCORES_BASE, MPU_DEVICE_ADDR, WriteAddr, &ReadData, sizeof(ReadData));
    15b0:	21042004 	addi	r4,r4,4224
-----------------------------------------------------------------------------------------------*/

unsigned int WriteReg( uint8_t WriteAddr, uint8_t WriteData )
{
#if 1
	if (WriteAddr & READ_FLAG)
    15b4:	10000a16 	blt	r2,zero,15e0 <WriteReg+0x50>
		return ReadReg(WriteAddr, WriteData);
	OC_I2C_Write(MPU_I2C_OPENCORES_BASE, MPU_DEVICE_ADDR, WriteAddr, &WriteData, sizeof(WriteData));
    15b8:	00800044 	movi	r2,1
    15bc:	d8800015 	stw	r2,0(sp)
    15c0:	d9c00204 	addi	r7,sp,8
    15c4:	31803fcc 	andi	r6,r6,255
    15c8:	01403404 	movi	r5,208
    15cc:	00004640 	call	464 <OC_I2C_Write>
	return 0x00;
    15d0:	0005883a 	mov	r2,zero

	SPIdev::transfer("/dev/spidev0.1", tx, rx, 2);

    return rx[1];
#endif
}
    15d4:	dfc00317 	ldw	ra,12(sp)
    15d8:	dec00404 	addi	sp,sp,16
    15dc:	f800283a 	ret

unsigned int  ReadReg( uint8_t WriteAddr, uint8_t WriteData )
{
#if 1
	unsigned char ReadData;
	OC_I2C_Read(MPU_I2C_OPENCORES_BASE, MPU_DEVICE_ADDR, WriteAddr, &ReadData, sizeof(ReadData));
    15e0:	00800044 	movi	r2,1
    15e4:	d8800015 	stw	r2,0(sp)
    15e8:	d9c00104 	addi	r7,sp,4
    15ec:	31803fcc 	andi	r6,r6,255
    15f0:	01403404 	movi	r5,208
    15f4:	00005e80 	call	5e8 <OC_I2C_Read>
	return ReadData;
    15f8:	d8800103 	ldbu	r2,4(sp)

	SPIdev::transfer("/dev/spidev0.1", tx, rx, 2);

    return rx[1];
#endif
}
    15fc:	dfc00317 	ldw	ra,12(sp)
    1600:	dec00404 	addi	sp,sp,16
    1604:	f800283a 	ret

00001608 <ReadReg>:

//-----------------------------------------------------------------------------------------------

unsigned int  ReadReg( uint8_t WriteAddr, uint8_t WriteData )
{
    1608:	defffd04 	addi	sp,sp,-12
#if 1
	unsigned char ReadData;
	OC_I2C_Read(MPU_I2C_OPENCORES_BASE, MPU_DEVICE_ADDR, WriteAddr, &ReadData, sizeof(ReadData));
    160c:	21803fcc 	andi	r6,r4,255
    1610:	00800044 	movi	r2,1
    1614:	01000134 	movhi	r4,4
    1618:	21042004 	addi	r4,r4,4224
    161c:	d8800015 	stw	r2,0(sp)
    1620:	d9c00104 	addi	r7,sp,4
    1624:	01403404 	movi	r5,208
}

//-----------------------------------------------------------------------------------------------

unsigned int  ReadReg( uint8_t WriteAddr, uint8_t WriteData )
{
    1628:	dfc00215 	stw	ra,8(sp)
#if 1
	unsigned char ReadData;
	OC_I2C_Read(MPU_I2C_OPENCORES_BASE, MPU_DEVICE_ADDR, WriteAddr, &ReadData, sizeof(ReadData));
    162c:	00005e80 	call	5e8 <OC_I2C_Read>
	return ReadData;
#else
    return WriteReg(WriteAddr | READ_FLAG, WriteData);
#endif
}
    1630:	d8800103 	ldbu	r2,4(sp)
    1634:	dfc00217 	ldw	ra,8(sp)
    1638:	dec00304 	addi	sp,sp,12
    163c:	f800283a 	ret

00001640 <ReadRegs>:

//-----------------------------------------------------------------------------------------------
void ReadRegs( uint8_t ReadAddr, uint8_t *ReadBuf, unsigned int Bytes )
{
    1640:	defffe04 	addi	sp,sp,-8
#if 1
	OC_I2C_Read(MPU_I2C_OPENCORES_BASE, MPU_DEVICE_ADDR, ReadAddr, ReadBuf, Bytes);
    1644:	d9800015 	stw	r6,0(sp)
    1648:	21803fcc 	andi	r6,r4,255
    164c:	01000134 	movhi	r4,4
    1650:	280f883a 	mov	r7,r5
    1654:	21042004 	addi	r4,r4,4224
    1658:	01403404 	movi	r5,208
#endif
}

//-----------------------------------------------------------------------------------------------
void ReadRegs( uint8_t ReadAddr, uint8_t *ReadBuf, unsigned int Bytes )
{
    165c:	dfc00115 	stw	ra,4(sp)
#if 1
	OC_I2C_Read(MPU_I2C_OPENCORES_BASE, MPU_DEVICE_ADDR, ReadAddr, ReadBuf, Bytes);
    1660:	00005e80 	call	5e8 <OC_I2C_Read>
    for(i=0; i<Bytes; i++)
    	ReadBuf[i] = rx[i + 1];

    usleep(50);
#endif
}
    1664:	dfc00117 	ldw	ra,4(sp)
    1668:	dec00204 	addi	sp,sp,8
    166c:	f800283a 	ret

00001670 <set_acc_scale>:
BITS_FS_16G
returns the range set (2,4,8 or 16)
-----------------------------------------------------------------------------------------------*/

unsigned int set_acc_scale(int scale)
{
    1670:	defffe04 	addi	sp,sp,-8
    1674:	dc000015 	stw	r16,0(sp)
	unsigned int temp_scale;
//	I2C_Write(MPU_I2C_SCL_BASE, MPU_I2C_SDA_BASE, MPU_DEVICE_ADDR, MPUREG_ACCEL_CONFIG, scale);
    WriteReg(MPUREG_ACCEL_CONFIG, scale);
    1678:	21403fcc 	andi	r5,r4,255
BITS_FS_16G
returns the range set (2,4,8 or 16)
-----------------------------------------------------------------------------------------------*/

unsigned int set_acc_scale(int scale)
{
    167c:	2021883a 	mov	r16,r4
	unsigned int temp_scale;
//	I2C_Write(MPU_I2C_SCL_BASE, MPU_I2C_SDA_BASE, MPU_DEVICE_ADDR, MPUREG_ACCEL_CONFIG, scale);
    WriteReg(MPUREG_ACCEL_CONFIG, scale);
    1680:	01000704 	movi	r4,28
BITS_FS_16G
returns the range set (2,4,8 or 16)
-----------------------------------------------------------------------------------------------*/

unsigned int set_acc_scale(int scale)
{
    1684:	dfc00115 	stw	ra,4(sp)
	unsigned int temp_scale;
//	I2C_Write(MPU_I2C_SCL_BASE, MPU_I2C_SDA_BASE, MPU_DEVICE_ADDR, MPUREG_ACCEL_CONFIG, scale);
    WriteReg(MPUREG_ACCEL_CONFIG, scale);
    1688:	00015900 	call	1590 <WriteReg>

    switch (scale){
    168c:	00800204 	movi	r2,8
    1690:	80802326 	beq	r16,r2,1720 <set_acc_scale+0xb0>
    1694:	14001e0e 	bge	r2,r16,1710 <set_acc_scale+0xa0>
    1698:	00800404 	movi	r2,16
    169c:	80801326 	beq	r16,r2,16ec <set_acc_scale+0x7c>
    16a0:	00800604 	movi	r2,24
    16a4:	8080021e 	bne	r16,r2,16b0 <set_acc_scale+0x40>
        break;
        case BITS_FS_8G:
            acc_divider=4096;
        break;
        case BITS_FS_16G:
            acc_divider=2048;
    16a8:	00914034 	movhi	r2,17664
    16ac:	d0a70915 	stw	r2,-25564(gp)
        break;
    }
//    I2C_Read(MPU_I2C_SCL_BASE, MPU_I2C_SDA_BASE, MPU_DEVICE_ADDR, MPUREG_ACCEL_CONFIG, &temp_scale);
	temp_scale=WriteReg(MPUREG_ACCEL_CONFIG|READ_FLAG, 0x00);
    16b0:	000b883a 	mov	r5,zero
    16b4:	01002704 	movi	r4,156
    16b8:	00015900 	call	1590 <WriteReg>

    switch (temp_scale){
    16bc:	00c00204 	movi	r3,8
    16c0:	10c01a26 	beq	r2,r3,172c <set_acc_scale+0xbc>
    16c4:	18800c2e 	bgeu	r3,r2,16f8 <set_acc_scale+0x88>
    16c8:	01000404 	movi	r4,16
    16cc:	11001c26 	beq	r2,r4,1740 <set_acc_scale+0xd0>
    16d0:	00c00604 	movi	r3,24
    16d4:	10c0011e 	bne	r2,r3,16dc <set_acc_scale+0x6c>
        break;
        case BITS_FS_8G:
            temp_scale=8;
        break;
        case BITS_FS_16G:
            temp_scale=16;
    16d8:	2005883a 	mov	r2,r4
        break;
    }
    return temp_scale;
}
    16dc:	dfc00117 	ldw	ra,4(sp)
    16e0:	dc000017 	ldw	r16,0(sp)
    16e4:	dec00204 	addi	sp,sp,8
    16e8:	f800283a 	ret
        break;
        case BITS_FS_4G:
            acc_divider=8192;
        break;
        case BITS_FS_8G:
            acc_divider=4096;
    16ec:	00916034 	movhi	r2,17792
    16f0:	d0a70915 	stw	r2,-25564(gp)
        break;
    16f4:	003fee06 	br	16b0 <__alt_mem_nios_system_shared_memory+0xfffc16b0>
        break;
    }
//    I2C_Read(MPU_I2C_SCL_BASE, MPU_I2C_SDA_BASE, MPU_DEVICE_ADDR, MPUREG_ACCEL_CONFIG, &temp_scale);
	temp_scale=WriteReg(MPUREG_ACCEL_CONFIG|READ_FLAG, 0x00);

    switch (temp_scale){
    16f8:	103ff81e 	bne	r2,zero,16dc <__alt_mem_nios_system_shared_memory+0xfffc16dc>
        case BITS_FS_2G:
            temp_scale=2;
    16fc:	00800084 	movi	r2,2
        case BITS_FS_16G:
            temp_scale=16;
        break;
    }
    return temp_scale;
}
    1700:	dfc00117 	ldw	ra,4(sp)
    1704:	dc000017 	ldw	r16,0(sp)
    1708:	dec00204 	addi	sp,sp,8
    170c:	f800283a 	ret
{
	unsigned int temp_scale;
//	I2C_Write(MPU_I2C_SCL_BASE, MPU_I2C_SDA_BASE, MPU_DEVICE_ADDR, MPUREG_ACCEL_CONFIG, scale);
    WriteReg(MPUREG_ACCEL_CONFIG, scale);

    switch (scale){
    1710:	803fe71e 	bne	r16,zero,16b0 <__alt_mem_nios_system_shared_memory+0xfffc16b0>
        case BITS_FS_2G:
            acc_divider=16384;
    1714:	0091a034 	movhi	r2,18048
    1718:	d0a70915 	stw	r2,-25564(gp)
        break;
    171c:	003fe406 	br	16b0 <__alt_mem_nios_system_shared_memory+0xfffc16b0>
        case BITS_FS_4G:
            acc_divider=8192;
    1720:	00918034 	movhi	r2,17920
    1724:	d0a70915 	stw	r2,-25564(gp)
        break;
    1728:	003fe106 	br	16b0 <__alt_mem_nios_system_shared_memory+0xfffc16b0>
    switch (temp_scale){
        case BITS_FS_2G:
            temp_scale=2;
        break;
        case BITS_FS_4G:
            temp_scale=4;
    172c:	00800104 	movi	r2,4
        case BITS_FS_16G:
            temp_scale=16;
        break;
    }
    return temp_scale;
}
    1730:	dfc00117 	ldw	ra,4(sp)
    1734:	dc000017 	ldw	r16,0(sp)
    1738:	dec00204 	addi	sp,sp,8
    173c:	f800283a 	ret
        break;
        case BITS_FS_4G:
            temp_scale=4;
        break;
        case BITS_FS_8G:
            temp_scale=8;
    1740:	1805883a 	mov	r2,r3
        case BITS_FS_16G:
            temp_scale=16;
        break;
    }
    return temp_scale;
}
    1744:	dfc00117 	ldw	ra,4(sp)
    1748:	dc000017 	ldw	r16,0(sp)
    174c:	dec00204 	addi	sp,sp,8
    1750:	f800283a 	ret

00001754 <set_gyro_scale>:
BITS_FS_2000DPS
returns the range set (250,500,1000 or 2000)
-----------------------------------------------------------------------------------------------*/

unsigned int set_gyro_scale(int scale)
{
    1754:	defffe04 	addi	sp,sp,-8
    1758:	dc000015 	stw	r16,0(sp)
    unsigned int temp_scale;
//    I2C_Write(MPU_I2C_SCL_BASE, MPU_I2C_SDA_BASE, MPU_DEVICE_ADDR, MPUREG_GYRO_CONFIG, scale);
    WriteReg(MPUREG_GYRO_CONFIG, scale);
    175c:	21403fcc 	andi	r5,r4,255
BITS_FS_2000DPS
returns the range set (250,500,1000 or 2000)
-----------------------------------------------------------------------------------------------*/

unsigned int set_gyro_scale(int scale)
{
    1760:	2021883a 	mov	r16,r4
    unsigned int temp_scale;
//    I2C_Write(MPU_I2C_SCL_BASE, MPU_I2C_SDA_BASE, MPU_DEVICE_ADDR, MPUREG_GYRO_CONFIG, scale);
    WriteReg(MPUREG_GYRO_CONFIG, scale);
    1764:	010006c4 	movi	r4,27
BITS_FS_2000DPS
returns the range set (250,500,1000 or 2000)
-----------------------------------------------------------------------------------------------*/

unsigned int set_gyro_scale(int scale)
{
    1768:	dfc00115 	stw	ra,4(sp)
    unsigned int temp_scale;
//    I2C_Write(MPU_I2C_SCL_BASE, MPU_I2C_SDA_BASE, MPU_DEVICE_ADDR, MPUREG_GYRO_CONFIG, scale);
    WriteReg(MPUREG_GYRO_CONFIG, scale);
    176c:	00015900 	call	1590 <WriteReg>
    switch (scale){
    1770:	00800204 	movi	r2,8
    1774:	80802526 	beq	r16,r2,180c <set_gyro_scale+0xb8>
    1778:	1400200e 	bge	r2,r16,17fc <set_gyro_scale+0xa8>
    177c:	00800404 	movi	r2,16
    1780:	80801426 	beq	r16,r2,17d4 <set_gyro_scale+0x80>
    1784:	00800604 	movi	r2,24
    1788:	8080031e 	bne	r16,r2,1798 <set_gyro_scale+0x44>
        break;
        case BITS_FS_1000DPS:
            gyro_divider=32.8;
        break;
        case BITS_FS_2000DPS:
            gyro_divider=16.4;
    178c:	009060f4 	movhi	r2,16771
    1790:	108cccc4 	addi	r2,r2,13107
    1794:	d0a70815 	stw	r2,-25568(gp)
        break;
    }
//    I2C_Read(MPU_I2C_SCL_BASE, MPU_I2C_SDA_BASE, MPU_DEVICE_ADDR, MPUREG_GYRO_CONFIG, &temp_scale);
    temp_scale=WriteReg(MPUREG_GYRO_CONFIG|READ_FLAG, 0x00);
    1798:	000b883a 	mov	r5,zero
    179c:	010026c4 	movi	r4,155
    17a0:	00015900 	call	1590 <WriteReg>
    switch (temp_scale){
    17a4:	00c00204 	movi	r3,8
    17a8:	10c01b26 	beq	r2,r3,1818 <set_gyro_scale+0xc4>
    17ac:	18800d2e 	bgeu	r3,r2,17e4 <set_gyro_scale+0x90>
    17b0:	00c00404 	movi	r3,16
    17b4:	10c01d26 	beq	r2,r3,182c <set_gyro_scale+0xd8>
    17b8:	00c00604 	movi	r3,24
    17bc:	10c0011e 	bne	r2,r3,17c4 <set_gyro_scale+0x70>
        break;
        case BITS_FS_1000DPS:
            temp_scale=1000;
        break;
        case BITS_FS_2000DPS:
            temp_scale=2000;
    17c0:	0081f404 	movi	r2,2000
        break;
    }
    return temp_scale;
}
    17c4:	dfc00117 	ldw	ra,4(sp)
    17c8:	dc000017 	ldw	r16,0(sp)
    17cc:	dec00204 	addi	sp,sp,8
    17d0:	f800283a 	ret
        break;
        case BITS_FS_500DPS:
            gyro_divider=65.5;
        break;
        case BITS_FS_1000DPS:
            gyro_divider=32.8;
    17d4:	009080f4 	movhi	r2,16899
    17d8:	108cccc4 	addi	r2,r2,13107
    17dc:	d0a70815 	stw	r2,-25568(gp)
        break;
    17e0:	003fed06 	br	1798 <__alt_mem_nios_system_shared_memory+0xfffc1798>
            gyro_divider=16.4;
        break;
    }
//    I2C_Read(MPU_I2C_SCL_BASE, MPU_I2C_SDA_BASE, MPU_DEVICE_ADDR, MPUREG_GYRO_CONFIG, &temp_scale);
    temp_scale=WriteReg(MPUREG_GYRO_CONFIG|READ_FLAG, 0x00);
    switch (temp_scale){
    17e4:	103ff71e 	bne	r2,zero,17c4 <__alt_mem_nios_system_shared_memory+0xfffc17c4>
        case BITS_FS_250DPS:
            temp_scale=250;
    17e8:	00803e84 	movi	r2,250
        case BITS_FS_2000DPS:
            temp_scale=2000;
        break;
    }
    return temp_scale;
}
    17ec:	dfc00117 	ldw	ra,4(sp)
    17f0:	dc000017 	ldw	r16,0(sp)
    17f4:	dec00204 	addi	sp,sp,8
    17f8:	f800283a 	ret
unsigned int set_gyro_scale(int scale)
{
    unsigned int temp_scale;
//    I2C_Write(MPU_I2C_SCL_BASE, MPU_I2C_SDA_BASE, MPU_DEVICE_ADDR, MPUREG_GYRO_CONFIG, scale);
    WriteReg(MPUREG_GYRO_CONFIG, scale);
    switch (scale){
    17fc:	803fe61e 	bne	r16,zero,1798 <__alt_mem_nios_system_shared_memory+0xfffc1798>
        case BITS_FS_250DPS:
            gyro_divider=131;
    1800:	0090c0f4 	movhi	r2,17155
    1804:	d0a70815 	stw	r2,-25568(gp)
        break;
    1808:	003fe306 	br	1798 <__alt_mem_nios_system_shared_memory+0xfffc1798>
        case BITS_FS_500DPS:
            gyro_divider=65.5;
    180c:	0090a0f4 	movhi	r2,17027
    1810:	d0a70815 	stw	r2,-25568(gp)
        break;
    1814:	003fe006 	br	1798 <__alt_mem_nios_system_shared_memory+0xfffc1798>
    switch (temp_scale){
        case BITS_FS_250DPS:
            temp_scale=250;
        break;
        case BITS_FS_500DPS:
            temp_scale=500;
    1818:	00807d04 	movi	r2,500
        case BITS_FS_2000DPS:
            temp_scale=2000;
        break;
    }
    return temp_scale;
}
    181c:	dfc00117 	ldw	ra,4(sp)
    1820:	dc000017 	ldw	r16,0(sp)
    1824:	dec00204 	addi	sp,sp,8
    1828:	f800283a 	ret
        break;
        case BITS_FS_500DPS:
            temp_scale=500;
        break;
        case BITS_FS_1000DPS:
            temp_scale=1000;
    182c:	0080fa04 	movi	r2,1000
        case BITS_FS_2000DPS:
            temp_scale=2000;
        break;
    }
    return temp_scale;
}
    1830:	dfc00117 	ldw	ra,4(sp)
    1834:	dc000017 	ldw	r16,0(sp)
    1838:	dec00204 	addi	sp,sp,8
    183c:	f800283a 	ret

00001840 <calib_acc>:
2 -> Z axis
returns Factory Trim value
-----------------------------------------------------------------------------------------------*/

void calib_acc()
{
    1840:	defffc04 	addi	sp,sp,-16
	alt_u8 response[4];
    int temp_scale;
    //READ CURRENT ACC SCALE

//    I2C_Read(MPU_I2C_SCL_BASE, MPU_I2C_SDA_BASE, MPU_DEVICE_ADDR, MPUREG_ACCEL_CONFIG, &temp_scale);
    temp_scale=WriteReg(MPUREG_ACCEL_CONFIG|READ_FLAG, 0x00);
    1844:	000b883a 	mov	r5,zero
    1848:	01002704 	movi	r4,156
2 -> Z axis
returns Factory Trim value
-----------------------------------------------------------------------------------------------*/

void calib_acc()
{
    184c:	dfc00315 	stw	ra,12(sp)
    1850:	dc000215 	stw	r16,8(sp)
	alt_u8 response[4];
    int temp_scale;
    //READ CURRENT ACC SCALE

//    I2C_Read(MPU_I2C_SCL_BASE, MPU_I2C_SDA_BASE, MPU_DEVICE_ADDR, MPUREG_ACCEL_CONFIG, &temp_scale);
    temp_scale=WriteReg(MPUREG_ACCEL_CONFIG|READ_FLAG, 0x00);
    1854:	00015900 	call	1590 <WriteReg>
    set_acc_scale(BITS_FS_8G);
    1858:	01000404 	movi	r4,16
	alt_u8 response[4];
    int temp_scale;
    //READ CURRENT ACC SCALE

//    I2C_Read(MPU_I2C_SCL_BASE, MPU_I2C_SDA_BASE, MPU_DEVICE_ADDR, MPUREG_ACCEL_CONFIG, &temp_scale);
    temp_scale=WriteReg(MPUREG_ACCEL_CONFIG|READ_FLAG, 0x00);
    185c:	1021883a 	mov	r16,r2
    set_acc_scale(BITS_FS_8G);
    1860:	00016700 	call	1670 <set_acc_scale>

//-----------------------------------------------------------------------------------------------
void ReadRegs( uint8_t ReadAddr, uint8_t *ReadBuf, unsigned int Bytes )
{
#if 1
	OC_I2C_Read(MPU_I2C_OPENCORES_BASE, MPU_DEVICE_ADDR, ReadAddr, ReadBuf, Bytes);
    1864:	00800104 	movi	r2,4
    1868:	01000134 	movhi	r4,4
    186c:	d88f883a 	add	r7,sp,r2
    1870:	21042004 	addi	r4,r4,4224
    1874:	d8800015 	stw	r2,0(sp)
    1878:	01800344 	movi	r6,13
    187c:	01403404 	movi	r5,208
    1880:	00005e80 	call	5e8 <OC_I2C_Read>
    //ENABLE SELF TEST need modify
    //temp_scale=WriteReg(MPUREG_ACCEL_CONFIG, 0x80>>axis);

//    I2C_MultipleRead(MPU_I2C_SCL_BASE, MPU_I2C_SDA_BASE, MPU_DEVICE_ADDR, MPUREG_SELF_TEST_X, response, 4);
    ReadRegs(MPUREG_SELF_TEST_X,response,4);
    calib_data[0]=((response[0]&11100000)>>3)|((response[3]&00110000)>>4);
    1884:	d8c001c3 	ldbu	r3,7(sp)
    calib_data[1]=((response[1]&11100000)>>3)|((response[3]&00001100)>>2);
    1888:	d9400143 	ldbu	r5,5(sp)
    calib_data[2]=((response[2]&11100000)>>3)|((response[3]&00000011));
    188c:	d9800183 	ldbu	r6,6(sp)
    //ENABLE SELF TEST need modify
    //temp_scale=WriteReg(MPUREG_ACCEL_CONFIG, 0x80>>axis);

//    I2C_MultipleRead(MPU_I2C_SCL_BASE, MPU_I2C_SDA_BASE, MPU_DEVICE_ADDR, MPUREG_SELF_TEST_X, response, 4);
    ReadRegs(MPUREG_SELF_TEST_X,response,4);
    calib_data[0]=((response[0]&11100000)>>3)|((response[3]&00110000)>>4);
    1890:	d9c00103 	ldbu	r7,4(sp)
    1894:	00802a74 	movhi	r2,169
    1898:	1097d804 	addi	r2,r2,24416
    calib_data[1]=((response[1]&11100000)>>3)|((response[3]&00001100)>>2);
    189c:	288a703a 	and	r5,r5,r2
    18a0:	1900100c 	andi	r4,r3,64
    calib_data[2]=((response[2]&11100000)>>3)|((response[3]&00000011));
    18a4:	308c703a 	and	r6,r6,r2
    18a8:	300dd0fa 	srai	r6,r6,3
    //ENABLE SELF TEST need modify
    //temp_scale=WriteReg(MPUREG_ACCEL_CONFIG, 0x80>>axis);

//    I2C_MultipleRead(MPU_I2C_SCL_BASE, MPU_I2C_SDA_BASE, MPU_DEVICE_ADDR, MPUREG_SELF_TEST_X, response, 4);
    ReadRegs(MPUREG_SELF_TEST_X,response,4);
    calib_data[0]=((response[0]&11100000)>>3)|((response[3]&00110000)>>4);
    18ac:	3884703a 	and	r2,r7,r2
    calib_data[1]=((response[1]&11100000)>>3)|((response[3]&00001100)>>2);
    18b0:	2009d0ba 	srai	r4,r4,2
    18b4:	280bd0fa 	srai	r5,r5,3
    //ENABLE SELF TEST need modify
    //temp_scale=WriteReg(MPUREG_ACCEL_CONFIG, 0x80>>axis);

//    I2C_MultipleRead(MPU_I2C_SCL_BASE, MPU_I2C_SDA_BASE, MPU_DEVICE_ADDR, MPUREG_SELF_TEST_X, response, 4);
    ReadRegs(MPUREG_SELF_TEST_X,response,4);
    calib_data[0]=((response[0]&11100000)>>3)|((response[3]&00110000)>>4);
    18b8:	1005d0fa 	srai	r2,r2,3
    18bc:	01c000b4 	movhi	r7,2
    calib_data[1]=((response[1]&11100000)>>3)|((response[3]&00001100)>>2);
    calib_data[2]=((response[2]&11100000)>>3)|((response[3]&00000011));
    18c0:	18c0024c 	andi	r3,r3,9
    //ENABLE SELF TEST need modify
    //temp_scale=WriteReg(MPUREG_ACCEL_CONFIG, 0x80>>axis);

//    I2C_MultipleRead(MPU_I2C_SCL_BASE, MPU_I2C_SDA_BASE, MPU_DEVICE_ADDR, MPUREG_SELF_TEST_X, response, 4);
    ReadRegs(MPUREG_SELF_TEST_X,response,4);
    calib_data[0]=((response[0]&11100000)>>3)|((response[3]&00110000)>>4);
    18c4:	39c98304 	addi	r7,r7,9740
    calib_data[1]=((response[1]&11100000)>>3)|((response[3]&00001100)>>2);
    18c8:	290ab03a 	or	r5,r5,r4
    calib_data[2]=((response[2]&11100000)>>3)|((response[3]&00000011));
    18cc:	30c6b03a 	or	r3,r6,r3

    set_acc_scale(temp_scale);
    18d0:	8009883a 	mov	r4,r16
    //ENABLE SELF TEST need modify
    //temp_scale=WriteReg(MPUREG_ACCEL_CONFIG, 0x80>>axis);

//    I2C_MultipleRead(MPU_I2C_SCL_BASE, MPU_I2C_SDA_BASE, MPU_DEVICE_ADDR, MPUREG_SELF_TEST_X, response, 4);
    ReadRegs(MPUREG_SELF_TEST_X,response,4);
    calib_data[0]=((response[0]&11100000)>>3)|((response[3]&00110000)>>4);
    18d4:	38800015 	stw	r2,0(r7)
    calib_data[1]=((response[1]&11100000)>>3)|((response[3]&00001100)>>2);
    18d8:	39400115 	stw	r5,4(r7)
    calib_data[2]=((response[2]&11100000)>>3)|((response[3]&00000011));
    18dc:	38c00215 	stw	r3,8(r7)

    set_acc_scale(temp_scale);
    18e0:	00016700 	call	1670 <set_acc_scale>
}
    18e4:	dfc00317 	ldw	ra,12(sp)
    18e8:	dc000217 	ldw	r16,8(sp)
    18ec:	dec00404 	addi	sp,sp,16
    18f0:	f800283a 	ret

000018f4 <calib_mag>:

//-----------------------------------------------------------------------------------------------

void calib_mag()
{
    18f4:	defffa04 	addi	sp,sp,-24
	alt_u8 response[3];
    float data;
    int i;

    WriteReg(MPUREG_I2C_SLV0_ADDR,AK8963_I2C_ADDR|READ_FLAG); //Set the I2C slave addres of AK8963 and set for read.
    18f8:	01402304 	movi	r5,140
    18fc:	01000944 	movi	r4,37
}

//-----------------------------------------------------------------------------------------------

void calib_mag()
{
    1900:	dfc00515 	stw	ra,20(sp)
    1904:	dc800415 	stw	r18,16(sp)
    1908:	dc400315 	stw	r17,12(sp)
    190c:	dc000215 	stw	r16,8(sp)
	alt_u8 response[3];
    float data;
    int i;

    WriteReg(MPUREG_I2C_SLV0_ADDR,AK8963_I2C_ADDR|READ_FLAG); //Set the I2C slave addres of AK8963 and set for read.
    1910:	00015900 	call	1590 <WriteReg>
    WriteReg(MPUREG_I2C_SLV0_REG, AK8963_ASAX); //I2C slave 0 register address from where to begin data transfer
    1914:	01400404 	movi	r5,16
    1918:	01000984 	movi	r4,38
    191c:	00015900 	call	1590 <WriteReg>
    WriteReg(MPUREG_I2C_SLV0_CTRL, 0x83); //Read 3 bytes from the magnetometer
    1920:	014020c4 	movi	r5,131
    1924:	010009c4 	movi	r4,39
    1928:	00015900 	call	1590 <WriteReg>
//    I2C_Write(MPU_I2C_SCL_BASE, MPU_I2C_SDA_BASE, MPU_DEVICE_ADDR, MPUREG_I2C_SLV0_REG, AK8963_ASAX);
//    I2C_Write(MPU_I2C_SCL_BASE, MPU_I2C_SDA_BASE, MPU_DEVICE_ADDR, MPUREG_I2C_SLV0_CTRL, 0x83);


    //WriteReg(MPUREG_I2C_SLV0_CTRL, 0x81);    //Enable I2C and set bytes
    usleep(10000);
    192c:	0109c404 	movi	r4,10000
    1930:	001b9f40 	call	1b9f4 <usleep>

//-----------------------------------------------------------------------------------------------
void ReadRegs( uint8_t ReadAddr, uint8_t *ReadBuf, unsigned int Bytes )
{
#if 1
	OC_I2C_Read(MPU_I2C_OPENCORES_BASE, MPU_DEVICE_ADDR, ReadAddr, ReadBuf, Bytes);
    1934:	01000134 	movhi	r4,4
    1938:	048000c4 	movi	r18,3
    193c:	21042004 	addi	r4,r4,4224
    1940:	044000b4 	movhi	r17,2
    1944:	dc800015 	stw	r18,0(sp)
    1948:	d9c00104 	addi	r7,sp,4
    194c:	01801244 	movi	r6,73
    1950:	01403404 	movi	r5,208
    1954:	8c498904 	addi	r17,r17,9764
    1958:	00005e80 	call	5e8 <OC_I2C_Read>
    //response[0]=WriteReg(MPUREG_EXT_SENS_DATA_01|READ_FLAG, 0x00);    //Read I2C
//    I2C_MultipleRead(MPU_I2C_SCL_BASE, MPU_I2C_SDA_BASE, MPU_DEVICE_ADDR, MPUREG_EXT_SENS_DATA_00, response, 3);
    ReadRegs(MPUREG_EXT_SENS_DATA_00,response,3);

    //response=WriteReg(MPUREG_I2C_SLV0_DO, 0x00);    //Read I2C
    for(i=0; i<3; i++) {
    195c:	0021883a 	mov	r16,zero
        data=response[i];
    1960:	d8c00104 	addi	r3,sp,4
    1964:	1c05883a 	add	r2,r3,r16
        magnetometer_ASA[i]=((data-128)/256+1)*Magnetometer_Sensitivity_Scale_Factor;
    1968:	11000003 	ldbu	r4,0(r2)
    196c:	8c400104 	addi	r17,r17,4
    //response[0]=WriteReg(MPUREG_EXT_SENS_DATA_01|READ_FLAG, 0x00);    //Read I2C
//    I2C_MultipleRead(MPU_I2C_SCL_BASE, MPU_I2C_SDA_BASE, MPU_DEVICE_ADDR, MPUREG_EXT_SENS_DATA_00, response, 3);
    ReadRegs(MPUREG_EXT_SENS_DATA_00,response,3);

    //response=WriteReg(MPUREG_I2C_SLV0_DO, 0x00);    //Read I2C
    for(i=0; i<3; i++) {
    1970:	84000044 	addi	r16,r16,1
        data=response[i];
        magnetometer_ASA[i]=((data-128)/256+1)*Magnetometer_Sensitivity_Scale_Factor;
    1974:	00066bc0 	call	66bc <__floatunsisf>
    1978:	0150c034 	movhi	r5,17152
    197c:	1009883a 	mov	r4,r2
    1980:	00060b40 	call	60b4 <__subsf3>
    1984:	014ee034 	movhi	r5,15232
    1988:	1009883a 	mov	r4,r2
    198c:	0005c840 	call	5c84 <__mulsf3>
    1990:	014fe034 	movhi	r5,16256
    1994:	1009883a 	mov	r4,r2
    1998:	00051800 	call	5180 <__addsf3>
    199c:	014f86b4 	movhi	r5,15898
    19a0:	29666684 	addi	r5,r5,-26214
    19a4:	1009883a 	mov	r4,r2
    19a8:	0005c840 	call	5c84 <__mulsf3>
    19ac:	88bfff15 	stw	r2,-4(r17)
    //response[0]=WriteReg(MPUREG_EXT_SENS_DATA_01|READ_FLAG, 0x00);    //Read I2C
//    I2C_MultipleRead(MPU_I2C_SCL_BASE, MPU_I2C_SDA_BASE, MPU_DEVICE_ADDR, MPUREG_EXT_SENS_DATA_00, response, 3);
    ReadRegs(MPUREG_EXT_SENS_DATA_00,response,3);

    //response=WriteReg(MPUREG_I2C_SLV0_DO, 0x00);    //Read I2C
    for(i=0; i<3; i++) {
    19b0:	84bfeb1e 	bne	r16,r18,1960 <__alt_mem_nios_system_shared_memory+0xfffc1960>
        data=response[i];
        magnetometer_ASA[i]=((data-128)/256+1)*Magnetometer_Sensitivity_Scale_Factor;
    }
}
    19b4:	dfc00517 	ldw	ra,20(sp)
    19b8:	dc800417 	ldw	r18,16(sp)
    19bc:	dc400317 	ldw	r17,12(sp)
    19c0:	dc000217 	ldw	r16,8(sp)
    19c4:	dec00604 	addi	sp,sp,24
    19c8:	f800283a 	ret

000019cc <MPU9250_initialize>:
-----------------------------------------------------------------------------------------------*/

#define MPU_InitRegNum 16

bool MPU9250_initialize()
{
    19cc:	defff404 	addi	sp,sp,-48
	alt_u8 i = 0;
	int low_pass_filter = 0x01;
	alt_u8 MPU_Init_Data[MPU_InitRegNum][2] =
    19d0:	02001b04 	movi	r8,108
    19d4:	da0000c5 	stb	r8,3(sp)
    19d8:	02000684 	movi	r8,26
    19dc:	da000145 	stb	r8,5(sp)
    19e0:	02000604 	movi	r8,24
    19e4:	da000185 	stb	r8,6(sp)
    19e8:	020006c4 	movi	r8,27
    19ec:	da0001c5 	stb	r8,7(sp)
    19f0:	02000204 	movi	r8,8
    19f4:	da000205 	stb	r8,8(sp)
    19f8:	02000704 	movi	r8,28
    19fc:	da000245 	stb	r8,9(sp)
    1a00:	02000244 	movi	r8,9
    1a04:	da000285 	stb	r8,10(sp)
    1a08:	02000744 	movi	r8,29
    1a0c:	da0002c5 	stb	r8,11(sp)
    1a10:	02000c04 	movi	r8,48
    1a14:	da000305 	stb	r8,12(sp)
    1a18:	02000dc4 	movi	r8,55
    1a1c:	da000345 	stb	r8,13(sp)
    1a20:	02000804 	movi	r8,32
    1a24:	da000385 	stb	r8,14(sp)
    1a28:	02001a84 	movi	r8,106
    1a2c:	da0003c5 	stb	r8,15(sp)
    1a30:	02000344 	movi	r8,13
    1a34:	da000405 	stb	r8,16(sp)
    1a38:	02000904 	movi	r8,36
    1a3c:	da000445 	stb	r8,17(sp)
    1a40:	02000304 	movi	r8,12
    1a44:	da000485 	stb	r8,18(sp)
    1a48:	02000944 	movi	r8,37
    1a4c:	da0004c5 	stb	r8,19(sp)
    1a50:	020002c4 	movi	r8,11
    1a54:	01400044 	movi	r5,1
    1a58:	01c00984 	movi	r7,38
    1a5c:	018018c4 	movi	r6,99
    1a60:	00ffe044 	movi	r3,-127
    1a64:	008009c4 	movi	r2,39
    1a68:	da000505 	stb	r8,20(sp)
    1a6c:	01001ac4 	movi	r4,107
    1a70:	02000284 	movi	r8,10
-----------------------------------------------------------------------------------------------*/

#define MPU_InitRegNum 16

bool MPU9250_initialize()
{
    1a74:	dc800a15 	stw	r18,40(sp)
    1a78:	dc400915 	stw	r17,36(sp)
    1a7c:	dc000815 	stw	r16,32(sp)
	alt_u8 i = 0;
	int low_pass_filter = 0x01;
	alt_u8 MPU_Init_Data[MPU_InitRegNum][2] =
    1a80:	d9c00545 	stb	r7,21(sp)
    1a84:	d9c006c5 	stb	r7,27(sp)
-----------------------------------------------------------------------------------------------*/

#define MPU_InitRegNum 16

bool MPU9250_initialize()
{
    1a88:	dfc00b15 	stw	ra,44(sp)
	alt_u8 i = 0;
	int low_pass_filter = 0x01;
	alt_u8 MPU_Init_Data[MPU_InitRegNum][2] =
    1a8c:	d9400005 	stb	r5,0(sp)
    1a90:	d9000045 	stb	r4,1(sp)
    1a94:	d8000085 	stb	zero,2(sp)
    1a98:	d9400105 	stb	r5,4(sp)
    1a9c:	d9400585 	stb	r5,22(sp)
    1aa0:	d98005c5 	stb	r6,23(sp)
    1aa4:	d8c00605 	stb	r3,24(sp)
    1aa8:	d8800645 	stb	r2,25(sp)
    1aac:	da000685 	stb	r8,26(sp)
    1ab0:	01c00484 	movi	r7,18
    1ab4:	d9c00705 	stb	r7,28(sp)
    1ab8:	dc0000c4 	addi	r16,sp,3
    1abc:	d9800745 	stb	r6,29(sp)
    1ac0:	d8c00785 	stb	r3,30(sp)
    1ac4:	d88007c5 	stb	r2,31(sp)
    1ac8:	d823883a 	mov	r17,sp
    1acc:	dc800844 	addi	r18,sp,33
    1ad0:	00000306 	br	1ae0 <MPU9250_initialize+0x114>
    1ad4:	89400003 	ldbu	r5,0(r17)
    1ad8:	81000003 	ldbu	r4,0(r16)
    1adc:	84000084 	addi	r16,r16,2
	};

	for(i = 0; i < MPU_InitRegNum; i++)
	{
//		I2C_Write(MPU_I2C_SCL_BASE, MPU_I2C_SDA_BASE, MPU_DEVICE_ADDR, MPU_Init_Data[i][1], MPU_Init_Data[i][0]);
		WriteReg(MPU_Init_Data[i][1], MPU_Init_Data[i][0]);
    1ae0:	21003fcc 	andi	r4,r4,255
    1ae4:	29403fcc 	andi	r5,r5,255
    1ae8:	00015900 	call	1590 <WriteReg>
	    usleep(100000);  //I2C must slow down the write speed, otherwise it won't work
    1aec:	010000b4 	movhi	r4,2
    1af0:	2121a804 	addi	r4,r4,-31072
    1af4:	8c400084 	addi	r17,r17,2
    1af8:	001b9f40 	call	1b9f4 <usleep>
	        {AK8963_CNTL1, MPUREG_I2C_SLV0_REG}, //I2C slave 0 register address from where to begin data transfer
	        {0x12, MPUREG_I2C_SLV0_DO}, // Register value to continuous measurement in 16bit
	        {0x81, MPUREG_I2C_SLV0_CTRL}  //Enable I2C and set 1 byte
	};

	for(i = 0; i < MPU_InitRegNum; i++)
    1afc:	84bff51e 	bne	r16,r18,1ad4 <__alt_mem_nios_system_shared_memory+0xfffc1ad4>
//		I2C_Write(MPU_I2C_SCL_BASE, MPU_I2C_SDA_BASE, MPU_DEVICE_ADDR, MPU_Init_Data[i][1], MPU_Init_Data[i][0]);
		WriteReg(MPU_Init_Data[i][1], MPU_Init_Data[i][0]);
	    usleep(100000);  //I2C must slow down the write speed, otherwise it won't work
	}

	set_acc_scale(BITS_FS_16G);
    1b00:	01000604 	movi	r4,24
    1b04:	00016700 	call	1670 <set_acc_scale>
	set_gyro_scale(BITS_FS_2000DPS);
    1b08:	01000604 	movi	r4,24
    1b0c:	00017540 	call	1754 <set_gyro_scale>

	calib_mag();
    1b10:	00018f40 	call	18f4 <calib_mag>

	return 0;
}
    1b14:	0005883a 	mov	r2,zero
    1b18:	dfc00b17 	ldw	ra,44(sp)
    1b1c:	dc800a17 	ldw	r18,40(sp)
    1b20:	dc400917 	ldw	r17,36(sp)
    1b24:	dc000817 	ldw	r16,32(sp)
    1b28:	dec00c04 	addi	sp,sp,48
    1b2c:	f800283a 	ret

00001b30 <read_acc>:
1 -> Y axis
2 -> Z axis
-----------------------------------------------------------------------------------------------*/

void read_acc()
{
    1b30:	defff604 	addi	sp,sp,-40
    1b34:	dc800515 	stw	r18,20(sp)

//-----------------------------------------------------------------------------------------------
void ReadRegs( uint8_t ReadAddr, uint8_t *ReadBuf, unsigned int Bytes )
{
#if 1
	OC_I2C_Read(MPU_I2C_OPENCORES_BASE, MPU_DEVICE_ADDR, ReadAddr, ReadBuf, Bytes);
    1b38:	01000134 	movhi	r4,4
    1b3c:	04800184 	movi	r18,6
    1b40:	21042004 	addi	r4,r4,4224
    1b44:	d9c00104 	addi	r7,sp,4
    1b48:	01800ec4 	movi	r6,59
    1b4c:	01403404 	movi	r5,208
    1b50:	dc800015 	stw	r18,0(sp)
1 -> Y axis
2 -> Z axis
-----------------------------------------------------------------------------------------------*/

void read_acc()
{
    1b54:	dfc00915 	stw	ra,36(sp)
    1b58:	dd400815 	stw	r21,32(sp)
    1b5c:	dd000715 	stw	r20,28(sp)
    1b60:	dcc00615 	stw	r19,24(sp)
    1b64:	dc400415 	stw	r17,16(sp)
    1b68:	dc000315 	stw	r16,12(sp)

//-----------------------------------------------------------------------------------------------
void ReadRegs( uint8_t ReadAddr, uint8_t *ReadBuf, unsigned int Bytes )
{
#if 1
	OC_I2C_Read(MPU_I2C_OPENCORES_BASE, MPU_DEVICE_ADDR, ReadAddr, ReadBuf, Bytes);
    1b6c:	00005e80 	call	5e8 <OC_I2C_Read>
    1b70:	d1270917 	ldw	r4,-25564(gp)
    1b74:	054000b4 	movhi	r21,2
    1b78:	ad498004 	addi	r21,r21,9728
    1b7c:	0008ec40 	call	8ec4 <__extendsfdf2>
    1b80:	dc400144 	addi	r17,sp,5
    1b84:	1029883a 	mov	r20,r2
    1b88:	1827883a 	mov	r19,r3
    1b8c:	0021883a 	mov	r16,zero
    int i;

//    I2C_MultipleRead(MPU_I2C_SCL_BASE, MPU_I2C_SDA_BASE, MPU_DEVICE_ADDR, MPUREG_ACCEL_XOUT_H, response, 6);
    ReadRegs(MPUREG_ACCEL_XOUT_H,response,6);
    for(i=0; i<3; i++) {
        bit_data = ((alt_16)response[i*2] << 8) | response[i*2+1];
    1b90:	d8c00104 	addi	r3,sp,4
    1b94:	1c05883a 	add	r2,r3,r16
        data = (float)bit_data;
        accelerometer_data[i] = G_SI * data / acc_divider;
    1b98:	11000003 	ldbu	r4,0(r2)
    1b9c:	88800003 	ldbu	r2,0(r17)
    1ba0:	ad400104 	addi	r21,r21,4
    1ba4:	2008923a 	slli	r4,r4,8
    1ba8:	84000084 	addi	r16,r16,2
    1bac:	8c400084 	addi	r17,r17,2
    1bb0:	2088b03a 	or	r4,r4,r2
    1bb4:	213fffcc 	andi	r4,r4,65535
    1bb8:	2120001c 	xori	r4,r4,32768
    1bbc:	21200004 	addi	r4,r4,-32768
    1bc0:	00065980 	call	6598 <__floatsisf>
    1bc4:	1009883a 	mov	r4,r2
    1bc8:	0008ec40 	call	8ec4 <__extendsfdf2>
    1bcc:	018ea4f4 	movhi	r6,14995
    1bd0:	01d00934 	movhi	r7,16420
    1bd4:	31a8c144 	addi	r6,r6,-23803
    1bd8:	39e74044 	addi	r7,r7,-25343
    1bdc:	1009883a 	mov	r4,r2
    1be0:	180b883a 	mov	r5,r3
    1be4:	0007c800 	call	7c80 <__muldf3>
    1be8:	a00d883a 	mov	r6,r20
    1bec:	980f883a 	mov	r7,r19
    1bf0:	1009883a 	mov	r4,r2
    1bf4:	180b883a 	mov	r5,r3
    1bf8:	00070580 	call	7058 <__divdf3>
    1bfc:	1009883a 	mov	r4,r2
    1c00:	180b883a 	mov	r5,r3
    1c04:	0008fd40 	call	8fd4 <__truncdfsf2>
    1c08:	a8bfff15 	stw	r2,-4(r21)
    float data;
    int i;

//    I2C_MultipleRead(MPU_I2C_SCL_BASE, MPU_I2C_SDA_BASE, MPU_DEVICE_ADDR, MPUREG_ACCEL_XOUT_H, response, 6);
    ReadRegs(MPUREG_ACCEL_XOUT_H,response,6);
    for(i=0; i<3; i++) {
    1c0c:	84bfe01e 	bne	r16,r18,1b90 <__alt_mem_nios_system_shared_memory+0xfffc1b90>
        bit_data = ((alt_16)response[i*2] << 8) | response[i*2+1];
        data = (float)bit_data;
        accelerometer_data[i] = G_SI * data / acc_divider;
    }

}
    1c10:	dfc00917 	ldw	ra,36(sp)
    1c14:	dd400817 	ldw	r21,32(sp)
    1c18:	dd000717 	ldw	r20,28(sp)
    1c1c:	dcc00617 	ldw	r19,24(sp)
    1c20:	dc800517 	ldw	r18,20(sp)
    1c24:	dc400417 	ldw	r17,16(sp)
    1c28:	dc000317 	ldw	r16,12(sp)
    1c2c:	dec00a04 	addi	sp,sp,40
    1c30:	f800283a 	ret

00001c34 <read_gyro>:
1 -> Y axis
2 -> Z axis
-----------------------------------------------------------------------------------------------*/

void read_gyro()
{
    1c34:	defff604 	addi	sp,sp,-40
    1c38:	dc800515 	stw	r18,20(sp)

//-----------------------------------------------------------------------------------------------
void ReadRegs( uint8_t ReadAddr, uint8_t *ReadBuf, unsigned int Bytes )
{
#if 1
	OC_I2C_Read(MPU_I2C_OPENCORES_BASE, MPU_DEVICE_ADDR, ReadAddr, ReadBuf, Bytes);
    1c3c:	01000134 	movhi	r4,4
    1c40:	04800184 	movi	r18,6
    1c44:	21042004 	addi	r4,r4,4224
    1c48:	d9c00104 	addi	r7,sp,4
    1c4c:	018010c4 	movi	r6,67
    1c50:	01403404 	movi	r5,208
    1c54:	dc800015 	stw	r18,0(sp)
1 -> Y axis
2 -> Z axis
-----------------------------------------------------------------------------------------------*/

void read_gyro()
{
    1c58:	dfc00915 	stw	ra,36(sp)
    1c5c:	dd400815 	stw	r21,32(sp)
    1c60:	dd000715 	stw	r20,28(sp)
    1c64:	dcc00615 	stw	r19,24(sp)
    1c68:	dc400415 	stw	r17,16(sp)
    1c6c:	dc000315 	stw	r16,12(sp)

//-----------------------------------------------------------------------------------------------
void ReadRegs( uint8_t ReadAddr, uint8_t *ReadBuf, unsigned int Bytes )
{
#if 1
	OC_I2C_Read(MPU_I2C_OPENCORES_BASE, MPU_DEVICE_ADDR, ReadAddr, ReadBuf, Bytes);
    1c70:	00005e80 	call	5e8 <OC_I2C_Read>
    1c74:	d1270817 	ldw	r4,-25568(gp)
    1c78:	054000b4 	movhi	r21,2
    1c7c:	ad498604 	addi	r21,r21,9752
    1c80:	0008ec40 	call	8ec4 <__extendsfdf2>
    1c84:	dc400144 	addi	r17,sp,5
    1c88:	1029883a 	mov	r20,r2
    1c8c:	1827883a 	mov	r19,r3
    1c90:	0021883a 	mov	r16,zero
    int i;

//    I2C_MultipleRead(MPU_I2C_SCL_BASE, MPU_I2C_SDA_BASE, MPU_DEVICE_ADDR, MPUREG_GYRO_XOUT_H, response, 6);
    ReadRegs(MPUREG_GYRO_XOUT_H,response,6);
    for(i=0; i<3; i++) {
        bit_data = ((alt_16)response[i*2] << 8) | response[i*2+1];
    1c94:	d8c00104 	addi	r3,sp,4
    1c98:	1c05883a 	add	r2,r3,r16
        data = (float)bit_data;
        gyroscope_data[i] = (M_PI / 180) * data / gyro_divider;
    1c9c:	11000003 	ldbu	r4,0(r2)
    1ca0:	88800003 	ldbu	r2,0(r17)
    1ca4:	ad400104 	addi	r21,r21,4
    1ca8:	2008923a 	slli	r4,r4,8
    1cac:	84000084 	addi	r16,r16,2
    1cb0:	8c400084 	addi	r17,r17,2
    1cb4:	2088b03a 	or	r4,r4,r2
    1cb8:	213fffcc 	andi	r4,r4,65535
    1cbc:	2120001c 	xori	r4,r4,32768
    1cc0:	21200004 	addi	r4,r4,-32768
    1cc4:	00065980 	call	6598 <__floatsisf>
    1cc8:	1009883a 	mov	r4,r2
    1ccc:	0008ec40 	call	8ec4 <__extendsfdf2>
    1cd0:	01a894f4 	movhi	r6,41555
    1cd4:	01cfe4b4 	movhi	r7,16274
    1cd8:	31a74e44 	addi	r6,r6,-25287
    1cdc:	39f7d184 	addi	r7,r7,-8378
    1ce0:	1009883a 	mov	r4,r2
    1ce4:	180b883a 	mov	r5,r3
    1ce8:	0007c800 	call	7c80 <__muldf3>
    1cec:	a00d883a 	mov	r6,r20
    1cf0:	980f883a 	mov	r7,r19
    1cf4:	1009883a 	mov	r4,r2
    1cf8:	180b883a 	mov	r5,r3
    1cfc:	00070580 	call	7058 <__divdf3>
    1d00:	1009883a 	mov	r4,r2
    1d04:	180b883a 	mov	r5,r3
    1d08:	0008fd40 	call	8fd4 <__truncdfsf2>
    1d0c:	a8bfff15 	stw	r2,-4(r21)
    float data;
    int i;

//    I2C_MultipleRead(MPU_I2C_SCL_BASE, MPU_I2C_SDA_BASE, MPU_DEVICE_ADDR, MPUREG_GYRO_XOUT_H, response, 6);
    ReadRegs(MPUREG_GYRO_XOUT_H,response,6);
    for(i=0; i<3; i++) {
    1d10:	84bfe01e 	bne	r16,r18,1c94 <__alt_mem_nios_system_shared_memory+0xfffc1c94>
        bit_data = ((alt_16)response[i*2] << 8) | response[i*2+1];
        data = (float)bit_data;
        gyroscope_data[i] = (M_PI / 180) * data / gyro_divider;
    }

}
    1d14:	dfc00917 	ldw	ra,36(sp)
    1d18:	dd400817 	ldw	r21,32(sp)
    1d1c:	dd000717 	ldw	r20,28(sp)
    1d20:	dcc00617 	ldw	r19,24(sp)
    1d24:	dc800517 	ldw	r18,20(sp)
    1d28:	dc400417 	ldw	r17,16(sp)
    1d2c:	dc000317 	ldw	r16,12(sp)
    1d30:	dec00a04 	addi	sp,sp,40
    1d34:	f800283a 	ret

00001d38 <read_temp>:
usage: call this function to read temperature data.
returns the value in C
-----------------------------------------------------------------------------------------------*/

void read_temp()
{
    1d38:	defffd04 	addi	sp,sp,-12

//-----------------------------------------------------------------------------------------------
void ReadRegs( uint8_t ReadAddr, uint8_t *ReadBuf, unsigned int Bytes )
{
#if 1
	OC_I2C_Read(MPU_I2C_OPENCORES_BASE, MPU_DEVICE_ADDR, ReadAddr, ReadBuf, Bytes);
    1d3c:	00800084 	movi	r2,2
    1d40:	01000134 	movhi	r4,4
    1d44:	d9c00104 	addi	r7,sp,4
    1d48:	01801044 	movi	r6,65
    1d4c:	01403404 	movi	r5,208
    1d50:	21042004 	addi	r4,r4,4224
    1d54:	d8800015 	stw	r2,0(sp)
usage: call this function to read temperature data.
returns the value in C
-----------------------------------------------------------------------------------------------*/

void read_temp()
{
    1d58:	dfc00215 	stw	ra,8(sp)

//-----------------------------------------------------------------------------------------------
void ReadRegs( uint8_t ReadAddr, uint8_t *ReadBuf, unsigned int Bytes )
{
#if 1
	OC_I2C_Read(MPU_I2C_OPENCORES_BASE, MPU_DEVICE_ADDR, ReadAddr, ReadBuf, Bytes);
    1d5c:	00005e80 	call	5e8 <OC_I2C_Read>
//    I2C_MultipleRead(MPU_I2C_SCL_BASE, MPU_I2C_SDA_BASE, MPU_DEVICE_ADDR, MPUREG_TEMP_OUT_H, response, 2);
    ReadRegs(MPUREG_TEMP_OUT_H,response,2);

    bit_data=((alt_16)response[0]<<8)|response[1];
    data=(float)bit_data;
    temperature=(data/340)+36.53;
    1d60:	d9000103 	ldbu	r4,4(sp)
    1d64:	d8800143 	ldbu	r2,5(sp)
    1d68:	2008923a 	slli	r4,r4,8
    1d6c:	2088b03a 	or	r4,r4,r2
    1d70:	213fffcc 	andi	r4,r4,65535
    1d74:	2120001c 	xori	r4,r4,32768
    1d78:	21200004 	addi	r4,r4,-32768
    1d7c:	00065980 	call	6598 <__floatsisf>
    1d80:	0150eab4 	movhi	r5,17322
    1d84:	1009883a 	mov	r4,r2
    1d88:	00056480 	call	5648 <__divsf3>
    1d8c:	1009883a 	mov	r4,r2
    1d90:	0008ec40 	call	8ec4 <__extendsfdf2>
    1d94:	01828f74 	movhi	r6,2621
    1d98:	01d010b4 	movhi	r7,16450
    1d9c:	319c2904 	addi	r6,r6,28836
    1da0:	39d0f5c4 	addi	r7,r7,17367
    1da4:	1009883a 	mov	r4,r2
    1da8:	180b883a 	mov	r5,r3
    1dac:	00067ac0 	call	67ac <__adddf3>
    1db0:	1009883a 	mov	r4,r2
    1db4:	180b883a 	mov	r5,r3
    1db8:	0008fd40 	call	8fd4 <__truncdfsf2>
    1dbc:	d0a70715 	stw	r2,-25572(gp)
}
    1dc0:	dfc00217 	ldw	ra,8(sp)
    1dc4:	dec00304 	addi	sp,sp,12
    1dc8:	f800283a 	ret

00001dcc <read_mag>:

//-----------------------------------------------------------------------------------------------

void read_mag()
{
    1dcc:	defff704 	addi	sp,sp,-36
	alt_u8 response[7];
	alt_16 bit_data;
    float data;
    int i;

    WriteReg(MPUREG_I2C_SLV0_ADDR,AK8963_I2C_ADDR|READ_FLAG); //Set the I2C slave addres of AK8963 and set for read.
    1dd0:	01402304 	movi	r5,140
    1dd4:	01000944 	movi	r4,37
}

//-----------------------------------------------------------------------------------------------

void read_mag()
{
    1dd8:	dfc00815 	stw	ra,32(sp)
    1ddc:	dd000715 	stw	r20,28(sp)
    1de0:	dcc00615 	stw	r19,24(sp)
    1de4:	dc800515 	stw	r18,20(sp)
    1de8:	dc400415 	stw	r17,16(sp)
    1dec:	dc000315 	stw	r16,12(sp)
	alt_u8 response[7];
	alt_16 bit_data;
    float data;
    int i;

    WriteReg(MPUREG_I2C_SLV0_ADDR,AK8963_I2C_ADDR|READ_FLAG); //Set the I2C slave addres of AK8963 and set for read.
    1df0:	00015900 	call	1590 <WriteReg>
    WriteReg(MPUREG_I2C_SLV0_REG, AK8963_HXL); //I2C slave 0 register address from where to begin data transfer
    1df4:	014000c4 	movi	r5,3
    1df8:	01000984 	movi	r4,38
    1dfc:	00015900 	call	1590 <WriteReg>
    WriteReg(MPUREG_I2C_SLV0_CTRL, 0x87); //Read 6 bytes from the magnetometer
    1e00:	014021c4 	movi	r5,135
    1e04:	010009c4 	movi	r4,39
    1e08:	00015900 	call	1590 <WriteReg>
//    I2C_Write(MPU_I2C_SCL_BASE, MPU_I2C_SDA_BASE, MPU_DEVICE_ADDR, MPUREG_I2C_SLV0_ADDR, AK8963_I2C_ADDR|READ_FLAG);
//    I2C_Write(MPU_I2C_SCL_BASE, MPU_I2C_SDA_BASE, MPU_DEVICE_ADDR, MPUREG_I2C_SLV0_REG, AK8963_HXL);
//    I2C_Write(MPU_I2C_SCL_BASE, MPU_I2C_SDA_BASE, MPU_DEVICE_ADDR, MPUREG_I2C_SLV0_CTRL, 0x87);

    usleep(10000);
    1e0c:	0109c404 	movi	r4,10000
    1e10:	001b9f40 	call	1b9f4 <usleep>

//-----------------------------------------------------------------------------------------------
void ReadRegs( uint8_t ReadAddr, uint8_t *ReadBuf, unsigned int Bytes )
{
#if 1
	OC_I2C_Read(MPU_I2C_OPENCORES_BASE, MPU_DEVICE_ADDR, ReadAddr, ReadBuf, Bytes);
    1e14:	008001c4 	movi	r2,7
    1e18:	01000134 	movhi	r4,4
    1e1c:	21042004 	addi	r4,r4,4224
    1e20:	04c000b4 	movhi	r19,2
    1e24:	048000b4 	movhi	r18,2
    1e28:	d8800015 	stw	r2,0(sp)
    1e2c:	d9c00104 	addi	r7,sp,4
    1e30:	01801244 	movi	r6,73
    1e34:	01403404 	movi	r5,208
    1e38:	9cc98904 	addi	r19,r19,9764
    1e3c:	94898c04 	addi	r18,r18,9776
    1e40:	00005e80 	call	5e8 <OC_I2C_Read>
    1e44:	dc400144 	addi	r17,sp,5
    1e48:	0021883a 	mov	r16,zero

    usleep(10000);
//    I2C_MultipleRead(MPU_I2C_SCL_BASE, MPU_I2C_SDA_BASE, MPU_DEVICE_ADDR, MPUREG_EXT_SENS_DATA_00, response, 7);
    ReadRegs(MPUREG_EXT_SENS_DATA_00,response,7);
    //must start your read from AK8963A register 0x03 and read seven bytes so that upon read of ST2 register 0x09 the AK8963A will unlatch the data registers for the next measurement.
    for(i=0; i<3; i++) {
    1e4c:	05000184 	movi	r20,6
        bit_data=((alt_16)response[i*2+1]<<8)|response[i*2];
        data=(float)bit_data;
        magnetometer_data[i]=data*magnetometer_ASA[i];
    1e50:	89000003 	ldbu	r4,0(r17)
    usleep(10000);
//    I2C_MultipleRead(MPU_I2C_SCL_BASE, MPU_I2C_SDA_BASE, MPU_DEVICE_ADDR, MPUREG_EXT_SENS_DATA_00, response, 7);
    ReadRegs(MPUREG_EXT_SENS_DATA_00,response,7);
    //must start your read from AK8963A register 0x03 and read seven bytes so that upon read of ST2 register 0x09 the AK8963A will unlatch the data registers for the next measurement.
    for(i=0; i<3; i++) {
        bit_data=((alt_16)response[i*2+1]<<8)|response[i*2];
    1e54:	d8c00104 	addi	r3,sp,4
    1e58:	1c05883a 	add	r2,r3,r16
        data=(float)bit_data;
        magnetometer_data[i]=data*magnetometer_ASA[i];
    1e5c:	10800003 	ldbu	r2,0(r2)
    1e60:	2008923a 	slli	r4,r4,8
    1e64:	84000084 	addi	r16,r16,2
    1e68:	8c400084 	addi	r17,r17,2
    1e6c:	2088b03a 	or	r4,r4,r2
    1e70:	213fffcc 	andi	r4,r4,65535
    1e74:	2120001c 	xori	r4,r4,32768
    1e78:	21200004 	addi	r4,r4,-32768
    1e7c:	00065980 	call	6598 <__floatsisf>
    1e80:	99400017 	ldw	r5,0(r19)
    1e84:	1009883a 	mov	r4,r2
    1e88:	9cc00104 	addi	r19,r19,4
    1e8c:	0005c840 	call	5c84 <__mulsf3>
    1e90:	90800015 	stw	r2,0(r18)
    1e94:	94800104 	addi	r18,r18,4

    usleep(10000);
//    I2C_MultipleRead(MPU_I2C_SCL_BASE, MPU_I2C_SDA_BASE, MPU_DEVICE_ADDR, MPUREG_EXT_SENS_DATA_00, response, 7);
    ReadRegs(MPUREG_EXT_SENS_DATA_00,response,7);
    //must start your read from AK8963A register 0x03 and read seven bytes so that upon read of ST2 register 0x09 the AK8963A will unlatch the data registers for the next measurement.
    for(i=0; i<3; i++) {
    1e98:	853fed1e 	bne	r16,r20,1e50 <__alt_mem_nios_system_shared_memory+0xfffc1e50>
        bit_data=((alt_16)response[i*2+1]<<8)|response[i*2];
        data=(float)bit_data;
        magnetometer_data[i]=data*magnetometer_ASA[i];
    }
}
    1e9c:	dfc00817 	ldw	ra,32(sp)
    1ea0:	dd000717 	ldw	r20,28(sp)
    1ea4:	dcc00617 	ldw	r19,24(sp)
    1ea8:	dc800517 	ldw	r18,20(sp)
    1eac:	dc400417 	ldw	r17,16(sp)
    1eb0:	dc000317 	ldw	r16,12(sp)
    1eb4:	dec00904 	addi	sp,sp,36
    1eb8:	f800283a 	ret

00001ebc <read_all>:

//-----------------------------------------------------------------------------------------------

void read_all()
{
    1ebc:	defff104 	addi	sp,sp,-60
	alt_16 bit_data;
    float data;
    int i;

    //Send I2C command at first
    WriteReg(MPUREG_I2C_SLV0_ADDR,AK8963_I2C_ADDR|READ_FLAG); //Set the I2C slave addres of AK8963 and set for read.
    1ec0:	01402304 	movi	r5,140
    1ec4:	01000944 	movi	r4,37
}

//-----------------------------------------------------------------------------------------------

void read_all()
{
    1ec8:	dfc00e15 	stw	ra,56(sp)
    1ecc:	dd400c15 	stw	r21,48(sp)
    1ed0:	dd000b15 	stw	r20,44(sp)
    1ed4:	dcc00a15 	stw	r19,40(sp)
    1ed8:	dc800915 	stw	r18,36(sp)
    1edc:	dc400815 	stw	r17,32(sp)
    1ee0:	dc000715 	stw	r16,28(sp)
    1ee4:	dd800d15 	stw	r22,52(sp)
	alt_16 bit_data;
    float data;
    int i;

    //Send I2C command at first
    WriteReg(MPUREG_I2C_SLV0_ADDR,AK8963_I2C_ADDR|READ_FLAG); //Set the I2C slave addres of AK8963 and set for read.
    1ee8:	00015900 	call	1590 <WriteReg>
    WriteReg(MPUREG_I2C_SLV0_REG, AK8963_HXL); //I2C slave 0 register address from where to begin data transfer
    1eec:	014000c4 	movi	r5,3
    1ef0:	01000984 	movi	r4,38
    1ef4:	00015900 	call	1590 <WriteReg>
    WriteReg(MPUREG_I2C_SLV0_CTRL, 0x87); //Read 7 bytes from the magnetometer
    1ef8:	014021c4 	movi	r5,135
    1efc:	010009c4 	movi	r4,39
    1f00:	00015900 	call	1590 <WriteReg>

//-----------------------------------------------------------------------------------------------
void ReadRegs( uint8_t ReadAddr, uint8_t *ReadBuf, unsigned int Bytes )
{
#if 1
	OC_I2C_Read(MPU_I2C_OPENCORES_BASE, MPU_DEVICE_ADDR, ReadAddr, ReadBuf, Bytes);
    1f04:	00800544 	movi	r2,21
    1f08:	01000134 	movhi	r4,4
    1f0c:	21042004 	addi	r4,r4,4224
    1f10:	d9c00104 	addi	r7,sp,4
    1f14:	01800ec4 	movi	r6,59
    1f18:	01403404 	movi	r5,208
    1f1c:	d8800015 	stw	r2,0(sp)
    1f20:	00005e80 	call	5e8 <OC_I2C_Read>
    1f24:	d1270917 	ldw	r4,-25564(gp)
    1f28:	054000b4 	movhi	r21,2
    1f2c:	ad498004 	addi	r21,r21,9728
    1f30:	0008ec40 	call	8ec4 <__extendsfdf2>
    1f34:	dc400144 	addi	r17,sp,5
    1f38:	1029883a 	mov	r20,r2
    1f3c:	1827883a 	mov	r19,r3
    1f40:	0021883a 	mov	r16,zero

    //wait(0.001);
//    I2C_MultipleRead(MPU_I2C_SCL_BASE, MPU_I2C_SDA_BASE, MPU_DEVICE_ADDR, MPUREG_ACCEL_XOUT_H, response, 21);
    ReadRegs(MPUREG_ACCEL_XOUT_H,response,21);
    //Get accelerometer value
    for(i=0; i<3; i++) {
    1f44:	04800184 	movi	r18,6
        bit_data = ((alt_16)response[i*2] << 8)|response[i*2+1];
    1f48:	d8c00104 	addi	r3,sp,4
    1f4c:	1c05883a 	add	r2,r3,r16
        data = (float)bit_data;
        accelerometer_data[i] = G_SI * data / acc_divider;
    1f50:	11000003 	ldbu	r4,0(r2)
    1f54:	88800003 	ldbu	r2,0(r17)
    1f58:	ad400104 	addi	r21,r21,4
    1f5c:	2008923a 	slli	r4,r4,8
    1f60:	84000084 	addi	r16,r16,2
    1f64:	8c400084 	addi	r17,r17,2
    1f68:	2088b03a 	or	r4,r4,r2
    1f6c:	213fffcc 	andi	r4,r4,65535
    1f70:	2120001c 	xori	r4,r4,32768
    1f74:	21200004 	addi	r4,r4,-32768
    1f78:	00065980 	call	6598 <__floatsisf>
    1f7c:	1009883a 	mov	r4,r2
    1f80:	0008ec40 	call	8ec4 <__extendsfdf2>
    1f84:	018ea4f4 	movhi	r6,14995
    1f88:	01d00934 	movhi	r7,16420
    1f8c:	31a8c144 	addi	r6,r6,-23803
    1f90:	39e74044 	addi	r7,r7,-25343
    1f94:	1009883a 	mov	r4,r2
    1f98:	180b883a 	mov	r5,r3
    1f9c:	0007c800 	call	7c80 <__muldf3>
    1fa0:	a00d883a 	mov	r6,r20
    1fa4:	980f883a 	mov	r7,r19
    1fa8:	1009883a 	mov	r4,r2
    1fac:	180b883a 	mov	r5,r3
    1fb0:	00070580 	call	7058 <__divdf3>
    1fb4:	1009883a 	mov	r4,r2
    1fb8:	180b883a 	mov	r5,r3
    1fbc:	0008fd40 	call	8fd4 <__truncdfsf2>
    1fc0:	a8bfff15 	stw	r2,-4(r21)

    //wait(0.001);
//    I2C_MultipleRead(MPU_I2C_SCL_BASE, MPU_I2C_SDA_BASE, MPU_DEVICE_ADDR, MPUREG_ACCEL_XOUT_H, response, 21);
    ReadRegs(MPUREG_ACCEL_XOUT_H,response,21);
    //Get accelerometer value
    for(i=0; i<3; i++) {
    1fc4:	84bfe01e 	bne	r16,r18,1f48 <__alt_mem_nios_system_shared_memory+0xfffc1f48>
        accelerometer_data[i] = G_SI * data / acc_divider;
    }
    //Get temperature
    bit_data = ((alt_16)response[i*2] << 8) | response[i*2+1];
    data = (float)bit_data;
    temperature = ((data - 21) / 333.87) + 21;
    1fc8:	d9000283 	ldbu	r4,10(sp)
    1fcc:	d88002c3 	ldbu	r2,11(sp)
    1fd0:	054000b4 	movhi	r21,2
    1fd4:	2008923a 	slli	r4,r4,8
    1fd8:	ad498604 	addi	r21,r21,9752
    1fdc:	dc000304 	addi	r16,sp,12
    1fe0:	2088b03a 	or	r4,r4,r2
    1fe4:	213fffcc 	andi	r4,r4,65535
    1fe8:	2120001c 	xori	r4,r4,32768
    1fec:	21200004 	addi	r4,r4,-32768
    1ff0:	00065980 	call	6598 <__floatsisf>
    1ff4:	01506a34 	movhi	r5,16808
    1ff8:	1009883a 	mov	r4,r2
    1ffc:	00060b40 	call	60b4 <__subsf3>
    2000:	1009883a 	mov	r4,r2
    2004:	0008ec40 	call	8ec4 <__extendsfdf2>
    2008:	01a147f4 	movhi	r6,34079
    200c:	01d01d74 	movhi	r7,16501
    2010:	31ae1484 	addi	r6,r6,-18350
    2014:	39f77ac4 	addi	r7,r7,-8725
    2018:	1009883a 	mov	r4,r2
    201c:	180b883a 	mov	r5,r3
    2020:	00070580 	call	7058 <__divdf3>
    2024:	000d883a 	mov	r6,zero
    2028:	01d00d74 	movhi	r7,16437
    202c:	1009883a 	mov	r4,r2
    2030:	180b883a 	mov	r5,r3
    2034:	00067ac0 	call	67ac <__adddf3>
    2038:	1009883a 	mov	r4,r2
    203c:	180b883a 	mov	r5,r3
    2040:	0008fd40 	call	8fd4 <__truncdfsf2>
    2044:	d1270817 	ldw	r4,-25568(gp)
    2048:	d0a70715 	stw	r2,-25572(gp)
    204c:	dc800344 	addi	r18,sp,13
    2050:	0008ec40 	call	8ec4 <__extendsfdf2>
    2054:	dc400484 	addi	r17,sp,18
    2058:	1029883a 	mov	r20,r2
    205c:	1827883a 	mov	r19,r3
    //Get gyroscope value
    for(i=4; i<7; i++) {
        bit_data = ((alt_16)response[i*2] << 8) | response[i*2+1];
        data = (float)bit_data;
        gyroscope_data[i-4] = (M_PI / 180) * data / gyro_divider;
    2060:	81000003 	ldbu	r4,0(r16)
    2064:	90800003 	ldbu	r2,0(r18)
    2068:	ad400104 	addi	r21,r21,4
    206c:	2008923a 	slli	r4,r4,8
    2070:	84000084 	addi	r16,r16,2
    2074:	94800084 	addi	r18,r18,2
    2078:	2088b03a 	or	r4,r4,r2
    207c:	213fffcc 	andi	r4,r4,65535
    2080:	2120001c 	xori	r4,r4,32768
    2084:	21200004 	addi	r4,r4,-32768
    2088:	00065980 	call	6598 <__floatsisf>
    208c:	1009883a 	mov	r4,r2
    2090:	0008ec40 	call	8ec4 <__extendsfdf2>
    2094:	01a894f4 	movhi	r6,41555
    2098:	01cfe4b4 	movhi	r7,16274
    209c:	31a74e44 	addi	r6,r6,-25287
    20a0:	39f7d184 	addi	r7,r7,-8378
    20a4:	1009883a 	mov	r4,r2
    20a8:	180b883a 	mov	r5,r3
    20ac:	0007c800 	call	7c80 <__muldf3>
    20b0:	a00d883a 	mov	r6,r20
    20b4:	980f883a 	mov	r7,r19
    20b8:	1009883a 	mov	r4,r2
    20bc:	180b883a 	mov	r5,r3
    20c0:	00070580 	call	7058 <__divdf3>
    20c4:	1009883a 	mov	r4,r2
    20c8:	180b883a 	mov	r5,r3
    20cc:	0008fd40 	call	8fd4 <__truncdfsf2>
    20d0:	a8bfff15 	stw	r2,-4(r21)
    //Get temperature
    bit_data = ((alt_16)response[i*2] << 8) | response[i*2+1];
    data = (float)bit_data;
    temperature = ((data - 21) / 333.87) + 21;
    //Get gyroscope value
    for(i=4; i<7; i++) {
    20d4:	847fe21e 	bne	r16,r17,2060 <__alt_mem_nios_system_shared_memory+0xfffc2060>
    20d8:	050000b4 	movhi	r20,2
    20dc:	04c000b4 	movhi	r19,2
    20e0:	a5098c04 	addi	r20,r20,9776
    20e4:	9cc98904 	addi	r19,r19,9764
    20e8:	dd4004c4 	addi	r21,sp,19
    20ec:	0021883a 	mov	r16,zero
        bit_data = ((alt_16)response[i*2] << 8) | response[i*2+1];
        data = (float)bit_data;
        gyroscope_data[i-4] = (M_PI / 180) * data / gyro_divider;
    }
    //Get Magnetometer value
    for(i=7; i<10; i++) {
    20f0:	04800304 	movi	r18,12
        bit_data = ((alt_16)response[i*2+1] << 8) | response[i*2];
        data = (float)bit_data;
        magnetometer_data[i-7] = data * magnetometer_ASA[i-7];
    20f4:	a9000003 	ldbu	r4,0(r21)
    20f8:	88800003 	ldbu	r2,0(r17)
    20fc:	852d883a 	add	r22,r16,r20
    2100:	2008923a 	slli	r4,r4,8
    2104:	ad400084 	addi	r21,r21,2
    2108:	8c400084 	addi	r17,r17,2
    210c:	2088b03a 	or	r4,r4,r2
    2110:	213fffcc 	andi	r4,r4,65535
    2114:	2120001c 	xori	r4,r4,32768
    2118:	21200004 	addi	r4,r4,-32768
    211c:	00065980 	call	6598 <__floatsisf>
    2120:	84c7883a 	add	r3,r16,r19
    2124:	19400017 	ldw	r5,0(r3)
    2128:	1009883a 	mov	r4,r2
    212c:	84000104 	addi	r16,r16,4
    2130:	0005c840 	call	5c84 <__mulsf3>
    2134:	b0800015 	stw	r2,0(r22)
        bit_data = ((alt_16)response[i*2] << 8) | response[i*2+1];
        data = (float)bit_data;
        gyroscope_data[i-4] = (M_PI / 180) * data / gyro_divider;
    }
    //Get Magnetometer value
    for(i=7; i<10; i++) {
    2138:	84bfee1e 	bne	r16,r18,20f4 <__alt_mem_nios_system_shared_memory+0xfffc20f4>
        bit_data = ((alt_16)response[i*2+1] << 8) | response[i*2];
        data = (float)bit_data;
        magnetometer_data[i-7] = data * magnetometer_ASA[i-7];
    }
}
    213c:	dfc00e17 	ldw	ra,56(sp)
    2140:	dd800d17 	ldw	r22,52(sp)
    2144:	dd400c17 	ldw	r21,48(sp)
    2148:	dd000b17 	ldw	r20,44(sp)
    214c:	dcc00a17 	ldw	r19,40(sp)
    2150:	dc800917 	ldw	r18,36(sp)
    2154:	dc400817 	ldw	r17,32(sp)
    2158:	dc000717 	ldw	r16,28(sp)
    215c:	dec00f04 	addi	sp,sp,60
    2160:	f800283a 	ret

00002164 <getMotion9>:
usage: call this functions to read and get values
returns accel, gyro and mag values
-----------------------------------------------------------------------------------------------*/

void getMotion9(float *ax, float *ay, float *az, float *gx, float *gy, float *gz, float *mx, float *my, float *mz)
{
    2164:	defffb04 	addi	sp,sp,-20
    2168:	dcc00315 	stw	r19,12(sp)
    216c:	dc800215 	stw	r18,8(sp)
    2170:	2027883a 	mov	r19,r4
    2174:	2825883a 	mov	r18,r5
    2178:	dc400115 	stw	r17,4(sp)
    217c:	dc000015 	stw	r16,0(sp)
    2180:	3023883a 	mov	r17,r6
    2184:	3821883a 	mov	r16,r7
    2188:	dfc00415 	stw	ra,16(sp)
    read_all();
    218c:	0001ebc0 	call	1ebc <read_all>
    *ax = accelerometer_data[0];
    2190:	020000b4 	movhi	r8,2
    2194:	42098004 	addi	r8,r8,9728
    2198:	41000017 	ldw	r4,0(r8)
    *ay = accelerometer_data[1];
    *az = accelerometer_data[2];
    *gx = gyroscope_data[0];
    219c:	00c000b4 	movhi	r3,2
    21a0:	18c98604 	addi	r3,r3,9752
-----------------------------------------------------------------------------------------------*/

void getMotion9(float *ax, float *ay, float *az, float *gx, float *gy, float *gz, float *mx, float *my, float *mz)
{
    read_all();
    *ax = accelerometer_data[0];
    21a4:	99000015 	stw	r4,0(r19)
    *ay = accelerometer_data[1];
    21a8:	41000117 	ldw	r4,4(r8)
    *az = accelerometer_data[2];
    *gx = gyroscope_data[0];
    *gy = gyroscope_data[1];
    *gz = gyroscope_data[2];
    *mx = magnetometer_data[0];
    21ac:	008000b4 	movhi	r2,2
    21b0:	10898c04 	addi	r2,r2,9776

void getMotion9(float *ax, float *ay, float *az, float *gx, float *gy, float *gz, float *mx, float *my, float *mz)
{
    read_all();
    *ax = accelerometer_data[0];
    *ay = accelerometer_data[1];
    21b4:	91000015 	stw	r4,0(r18)
    *az = accelerometer_data[2];
    21b8:	41000217 	ldw	r4,8(r8)
    21bc:	89000015 	stw	r4,0(r17)
    *gx = gyroscope_data[0];
    21c0:	19000017 	ldw	r4,0(r3)
    21c4:	81000015 	stw	r4,0(r16)
    *gy = gyroscope_data[1];
    21c8:	19400117 	ldw	r5,4(r3)
    21cc:	d9000517 	ldw	r4,20(sp)
    21d0:	21400015 	stw	r5,0(r4)
    *gz = gyroscope_data[2];
    21d4:	19000217 	ldw	r4,8(r3)
    21d8:	d8c00617 	ldw	r3,24(sp)
    21dc:	19000015 	stw	r4,0(r3)
    *mx = magnetometer_data[0];
    21e0:	11000017 	ldw	r4,0(r2)
    21e4:	d8c00717 	ldw	r3,28(sp)
    21e8:	19000015 	stw	r4,0(r3)
    *my = magnetometer_data[1];
    21ec:	11000117 	ldw	r4,4(r2)
    21f0:	d8c00817 	ldw	r3,32(sp)
    21f4:	19000015 	stw	r4,0(r3)
    *mz = magnetometer_data[2];
    21f8:	10c00217 	ldw	r3,8(r2)
    21fc:	d8800917 	ldw	r2,36(sp)
    2200:	10c00015 	stw	r3,0(r2)
}
    2204:	dfc00417 	ldw	ra,16(sp)
    2208:	dcc00317 	ldw	r19,12(sp)
    220c:	dc800217 	ldw	r18,8(sp)
    2210:	dc400117 	ldw	r17,4(sp)
    2214:	dc000017 	ldw	r16,0(sp)
    2218:	dec00504 	addi	sp,sp,20
    221c:	f800283a 	ret

00002220 <getMotion6>:

//-----------------------------------------------------------------------------------------------

void getMotion6(float *ax, float *ay, float *az, float *gx, float *gy, float *gz)
{
    2220:	defffb04 	addi	sp,sp,-20
    2224:	dfc00415 	stw	ra,16(sp)
    2228:	dcc00315 	stw	r19,12(sp)
    222c:	dc800215 	stw	r18,8(sp)
    2230:	2027883a 	mov	r19,r4
    2234:	2825883a 	mov	r18,r5
    2238:	dc400115 	stw	r17,4(sp)
    223c:	dc000015 	stw	r16,0(sp)
    2240:	3023883a 	mov	r17,r6
    2244:	3821883a 	mov	r16,r7
    read_acc();
    2248:	0001b300 	call	1b30 <read_acc>
    read_gyro();
    224c:	0001c340 	call	1c34 <read_gyro>
    *ax = accelerometer_data[0];
    2250:	00c000b4 	movhi	r3,2
    2254:	18c98004 	addi	r3,r3,9728
    2258:	19000017 	ldw	r4,0(r3)
    *ay = accelerometer_data[1];
    *az = accelerometer_data[2];
    *gx = gyroscope_data[0];
    225c:	008000b4 	movhi	r2,2
    2260:	10898604 	addi	r2,r2,9752

void getMotion6(float *ax, float *ay, float *az, float *gx, float *gy, float *gz)
{
    read_acc();
    read_gyro();
    *ax = accelerometer_data[0];
    2264:	99000015 	stw	r4,0(r19)
    *ay = accelerometer_data[1];
    2268:	19000117 	ldw	r4,4(r3)
    226c:	91000015 	stw	r4,0(r18)
    *az = accelerometer_data[2];
    2270:	18c00217 	ldw	r3,8(r3)
    2274:	88c00015 	stw	r3,0(r17)
    *gx = gyroscope_data[0];
    2278:	10c00017 	ldw	r3,0(r2)
    227c:	80c00015 	stw	r3,0(r16)
    *gy = gyroscope_data[1];
    2280:	11000117 	ldw	r4,4(r2)
    2284:	d8c00517 	ldw	r3,20(sp)
    2288:	19000015 	stw	r4,0(r3)
    *gz = gyroscope_data[2];
    228c:	10c00217 	ldw	r3,8(r2)
    2290:	d8800617 	ldw	r2,24(sp)
    2294:	10c00015 	stw	r3,0(r2)
}
    2298:	dfc00417 	ldw	ra,16(sp)
    229c:	dcc00317 	ldw	r19,12(sp)
    22a0:	dc800217 	ldw	r18,8(sp)
    22a4:	dc400117 	ldw	r17,4(sp)
    22a8:	dc000017 	ldw	r16,0(sp)
    22ac:	dec00504 	addi	sp,sp,20
    22b0:	f800283a 	ret

000022b4 <RH_Temp_Init>:
void RH_Temp_Init(alt_u32 I2C_Controller_Base)
{
	const int ref_clk = 50*1000*1000; // 50Mhz
	const int i2c_clk = 400*1000; // 400KHz
//	MPU9250_I2C_Controller_Base = I2C_Controller_Base;
	oc_i2c_init_ex(I2C_Controller_Base, ref_clk, i2c_clk);
    22b4:	018001b4 	movhi	r6,6
    22b8:	0140bef4 	movhi	r5,763

bool th_write_register(alt_u8 RegisterPorinter, alt_u16 Data16);
bool th_read_register(alt_u8 RegisterPorinter, alt_u16 *pData16);

void RH_Temp_Init(alt_u32 I2C_Controller_Base)
{
    22bc:	defffb04 	addi	sp,sp,-20
	const int ref_clk = 50*1000*1000; // 50Mhz
	const int i2c_clk = 400*1000; // 400KHz
//	MPU9250_I2C_Controller_Base = I2C_Controller_Base;
	oc_i2c_init_ex(I2C_Controller_Base, ref_clk, i2c_clk);
    22c0:	3186a004 	addi	r6,r6,6784
    22c4:	297c2004 	addi	r5,r5,-3968

bool th_write_register(alt_u8 RegisterPorinter, alt_u16 Data16);
bool th_read_register(alt_u8 RegisterPorinter, alt_u16 *pData16);

void RH_Temp_Init(alt_u32 I2C_Controller_Base)
{
    22c8:	dfc00415 	stw	ra,16(sp)
    22cc:	dc400315 	stw	r17,12(sp)
    22d0:	dc000215 	stw	r16,8(sp)
	const int ref_clk = 50*1000*1000; // 50Mhz
	const int i2c_clk = 400*1000; // 400KHz
//	MPU9250_I2C_Controller_Base = I2C_Controller_Base;
	oc_i2c_init_ex(I2C_Controller_Base, ref_clk, i2c_clk);
    22d4:	00002a00 	call	2a0 <oc_i2c_init_ex>
	bool bPass;
	alt_u8 szData8[2];

	szData8[0] = (Data16 >> 8) & 0xFF;
	szData8[1] = Data16 & 0xFF;
	bPass = OC_I2C_Write(RH_TEMP_I2C_OPENCORES_BASE, RH_Temp_DEVICE_ADDR, RegisterPorinter, szData8, sizeof(szData8));
    22d8:	04000084 	movi	r16,2
    22dc:	01000134 	movhi	r4,4

bool th_write_register(alt_u8 RegisterPorinter, alt_u16 Data16){
	bool bPass;
	alt_u8 szData8[2];

	szData8[0] = (Data16 >> 8) & 0xFF;
    22e0:	047fe004 	movi	r17,-128
	szData8[1] = Data16 & 0xFF;
	bPass = OC_I2C_Write(RH_TEMP_I2C_OPENCORES_BASE, RH_Temp_DEVICE_ADDR, RegisterPorinter, szData8, sizeof(szData8));
    22e4:	21041004 	addi	r4,r4,4160
    22e8:	dc000015 	stw	r16,0(sp)
    22ec:	d9c00104 	addi	r7,sp,4
    22f0:	800d883a 	mov	r6,r16
    22f4:	01402004 	movi	r5,128

bool th_write_register(alt_u8 RegisterPorinter, alt_u16 Data16){
	bool bPass;
	alt_u8 szData8[2];

	szData8[0] = (Data16 >> 8) & 0xFF;
    22f8:	dc400105 	stb	r17,4(sp)
	szData8[1] = Data16 & 0xFF;
    22fc:	d8000145 	stb	zero,5(sp)
	bPass = OC_I2C_Write(RH_TEMP_I2C_OPENCORES_BASE, RH_Temp_DEVICE_ADDR, RegisterPorinter, szData8, sizeof(szData8));
    2300:	00004640 	call	464 <OC_I2C_Write>
	oc_i2c_init_ex(I2C_Controller_Base, ref_clk, i2c_clk);

    // reset
	bool bPass;
    bPass = th_reset(RH_TEMP_I2C_OPENCORES_BASE);
    if (!bPass){
    2304:	10803fcc 	andi	r2,r2,255
    2308:	10000526 	beq	r2,zero,2320 <RH_Temp_Init+0x6c>
    }

    //th_dump_chip_info(RH_TEMP_I2C_OPENCORES_BASE);


}
    230c:	dfc00417 	ldw	ra,16(sp)
    2310:	dc400317 	ldw	r17,12(sp)
    2314:	dc000217 	ldw	r16,8(sp)
    2318:	dec00504 	addi	sp,sp,20
    231c:	f800283a 	ret
	bool bPass;
	alt_u8 szData8[2];

	szData8[0] = (Data16 >> 8) & 0xFF;
	szData8[1] = Data16 & 0xFF;
	bPass = OC_I2C_Write(RH_TEMP_I2C_OPENCORES_BASE, RH_Temp_DEVICE_ADDR, RegisterPorinter, szData8, sizeof(szData8));
    2320:	01000134 	movhi	r4,4
    2324:	21041004 	addi	r4,r4,4160
    2328:	dc000015 	stw	r16,0(sp)
    232c:	d9c00104 	addi	r7,sp,4
    2330:	800d883a 	mov	r6,r16
    2334:	01402004 	movi	r5,128

bool th_write_register(alt_u8 RegisterPorinter, alt_u16 Data16){
	bool bPass;
	alt_u8 szData8[2];

	szData8[0] = (Data16 >> 8) & 0xFF;
    2338:	dc400105 	stb	r17,4(sp)
	szData8[1] = Data16 & 0xFF;
    233c:	d8000145 	stb	zero,5(sp)
	bPass = OC_I2C_Write(RH_TEMP_I2C_OPENCORES_BASE, RH_Temp_DEVICE_ADDR, RegisterPorinter, szData8, sizeof(szData8));
    2340:	00004640 	call	464 <OC_I2C_Write>
    // reset
	bool bPass;
    bPass = th_reset(RH_TEMP_I2C_OPENCORES_BASE);
    if (!bPass){
    	bPass = th_reset(RH_TEMP_I2C_OPENCORES_BASE); // try again
    	if (!bPass){
    2344:	10803fcc 	andi	r2,r2,255
    2348:	103ff01e 	bne	r2,zero,230c <__alt_mem_nios_system_shared_memory+0xfffc230c>
    		printf("Failed to reset!\r\n");
    234c:	010000b4 	movhi	r4,2
    2350:	2138ba04 	addi	r4,r4,-7448
    2354:	000b4c80 	call	b4c8 <puts>
    }

    //th_dump_chip_info(RH_TEMP_I2C_OPENCORES_BASE);


}
    2358:	003fec06 	br	230c <__alt_mem_nios_system_shared_memory+0xfffc230c>

0000235c <RH_Temp_Read_Device_ID>:

bool RH_Temp_Read_Device_ID(alt_u16 *pID16){
    235c:	defffb04 	addi	sp,sp,-20
    2360:	dc400315 	stw	r17,12(sp)
	bool bPass;
	alt_u8 szData8[2];

	bPass =  OC_I2C_Read(RH_TEMP_I2C_OPENCORES_BASE, RH_Temp_DEVICE_ADDR, R_DEVICE_ID, szData8, sizeof(szData8));
    2364:	00800084 	movi	r2,2
    //th_dump_chip_info(RH_TEMP_I2C_OPENCORES_BASE);


}

bool RH_Temp_Read_Device_ID(alt_u16 *pID16){
    2368:	2023883a 	mov	r17,r4
	bool bPass;
	alt_u8 szData8[2];

	bPass =  OC_I2C_Read(RH_TEMP_I2C_OPENCORES_BASE, RH_Temp_DEVICE_ADDR, R_DEVICE_ID, szData8, sizeof(szData8));
    236c:	01000134 	movhi	r4,4
    2370:	21041004 	addi	r4,r4,4160
    2374:	d8800015 	stw	r2,0(sp)
    2378:	d9c00104 	addi	r7,sp,4
    237c:	01803fc4 	movi	r6,255
    2380:	01402004 	movi	r5,128
    //th_dump_chip_info(RH_TEMP_I2C_OPENCORES_BASE);


}

bool RH_Temp_Read_Device_ID(alt_u16 *pID16){
    2384:	dc000215 	stw	r16,8(sp)
    2388:	dfc00415 	stw	ra,16(sp)
	bool bPass;
	alt_u8 szData8[2];

	bPass =  OC_I2C_Read(RH_TEMP_I2C_OPENCORES_BASE, RH_Temp_DEVICE_ADDR, R_DEVICE_ID, szData8, sizeof(szData8));
    238c:	00005e80 	call	5e8 <OC_I2C_Read>
    2390:	1021883a 	mov	r16,r2
	if (bPass){
    2394:	10803fcc 	andi	r2,r2,255
    2398:	10000926 	beq	r2,zero,23c0 <RH_Temp_Read_Device_ID+0x64>
		*pID16 = (szData8[0] << 8) | szData8[1];
    239c:	d9400103 	ldbu	r5,4(sp)
    23a0:	d8800143 	ldbu	r2,5(sp)
		printf("Device ID=%04xh\r\n", *pID16);
    23a4:	010000b4 	movhi	r4,2
	bool bPass;
	alt_u8 szData8[2];

	bPass =  OC_I2C_Read(RH_TEMP_I2C_OPENCORES_BASE, RH_Temp_DEVICE_ADDR, R_DEVICE_ID, szData8, sizeof(szData8));
	if (bPass){
		*pID16 = (szData8[0] << 8) | szData8[1];
    23a8:	280a923a 	slli	r5,r5,8
		printf("Device ID=%04xh\r\n", *pID16);
    23ac:	2138bf04 	addi	r4,r4,-7428
	bool bPass;
	alt_u8 szData8[2];

	bPass =  OC_I2C_Read(RH_TEMP_I2C_OPENCORES_BASE, RH_Temp_DEVICE_ADDR, R_DEVICE_ID, szData8, sizeof(szData8));
	if (bPass){
		*pID16 = (szData8[0] << 8) | szData8[1];
    23b0:	288ab03a 	or	r5,r5,r2
    23b4:	8940000d 	sth	r5,0(r17)
		printf("Device ID=%04xh\r\n", *pID16);
    23b8:	297fffcc 	andi	r5,r5,65535
    23bc:	000b3ac0 	call	b3ac <printf>
	}
	return bPass;


}
    23c0:	8005883a 	mov	r2,r16
    23c4:	dfc00417 	ldw	ra,16(sp)
    23c8:	dc400317 	ldw	r17,12(sp)
    23cc:	dc000217 	ldw	r16,8(sp)
    23d0:	dec00504 	addi	sp,sp,20
    23d4:	f800283a 	ret

000023d8 <Write_Configuration>:

bool th_write_register(alt_u8 RegisterPorinter, alt_u16 Data16){
	bool bPass;
	alt_u8 szData8[2];

	szData8[0] = (Data16 >> 8) & 0xFF;
    23d8:	2940004c 	andi	r5,r5,1
    23dc:	318000cc 	andi	r6,r6,3
    23e0:	280492ba 	slli	r2,r5,10
    23e4:	300c923a 	slli	r6,r6,8
    23e8:	2100004c 	andi	r4,r4,1
    23ec:	2006933a 	slli	r3,r4,12
    23f0:	1185883a 	add	r2,r2,r6
}



bool Write_Configuration(alt_u8 acquisition_mode , alt_u8 temp_resolution,alt_u8 humidity_resolution)
{
    23f4:	defffc04 	addi	sp,sp,-16

bool th_write_register(alt_u8 RegisterPorinter, alt_u16 Data16){
	bool bPass;
	alt_u8 szData8[2];

	szData8[0] = (Data16 >> 8) & 0xFF;
    23f8:	10c5883a 	add	r2,r2,r3
    23fc:	1004d23a 	srli	r2,r2,8
	szData8[1] = Data16 & 0xFF;
	bPass = OC_I2C_Write(RH_TEMP_I2C_OPENCORES_BASE, RH_Temp_DEVICE_ADDR, RegisterPorinter, szData8, sizeof(szData8));
    2400:	01800084 	movi	r6,2
    2404:	01000134 	movhi	r4,4
    2408:	21041004 	addi	r4,r4,4160
    240c:	d9800015 	stw	r6,0(sp)
    2410:	d9c00104 	addi	r7,sp,4
    2414:	01402004 	movi	r5,128
}



bool Write_Configuration(alt_u8 acquisition_mode , alt_u8 temp_resolution,alt_u8 humidity_resolution)
{
    2418:	dc000215 	stw	r16,8(sp)
    241c:	dfc00315 	stw	ra,12(sp)

bool th_write_register(alt_u8 RegisterPorinter, alt_u16 Data16){
	bool bPass;
	alt_u8 szData8[2];

	szData8[0] = (Data16 >> 8) & 0xFF;
    2420:	d8800105 	stb	r2,4(sp)
	szData8[1] = Data16 & 0xFF;
    2424:	d8000145 	stb	zero,5(sp)
	bPass = OC_I2C_Write(RH_TEMP_I2C_OPENCORES_BASE, RH_Temp_DEVICE_ADDR, RegisterPorinter, szData8, sizeof(szData8));
    2428:	00004640 	call	464 <OC_I2C_Write>
    242c:	1021883a 	mov	r16,r2

	//printf("Write Configure Register: %04xh\r\n", Data16);

	bPass = th_write_register(R_CONFIGURATION, Data16);

	if (bPass)
    2430:	10803fcc 	andi	r2,r2,255
    2434:	10000226 	beq	r2,zero,2440 <Write_Configuration+0x68>
		usleep(20*1000); // wait ready
    2438:	01138804 	movi	r4,20000
    243c:	001b9f40 	call	1b9f4 <usleep>

	return bPass;
}
    2440:	8005883a 	mov	r2,r16
    2444:	dfc00317 	ldw	ra,12(sp)
    2448:	dc000217 	ldw	r16,8(sp)
    244c:	dec00404 	addi	sp,sp,16
    2450:	f800283a 	ret

00002454 <RH_Temp_Sensor_Init>:


    //Temperature and Humidity are acquired in sequence, Temperature first.
    //Temperature Measurement Resolution: 14 bits
    //Humidity Measurement Resolution: 14 bits
	bPass =  Write_Configuration(1,0,0);
    2454:	000d883a 	mov	r6,zero
    2458:	000b883a 	mov	r5,zero
    245c:	01000044 	movi	r4,1
    2460:	00023d81 	jmpi	23d8 <Write_Configuration>

00002464 <th_Read_Measure_Data>:
	return bPass;
}


bool th_Read_Measure_Data(int nRegisterNo, alt_u8 *pData8, int nReadLength)
{
    2464:	defffa04 	addi	sp,sp,-24
    2468:	dd000415 	stw	r20,16(sp)
    246c:	3029883a 	mov	r20,r6
	bool bPass;
	const bool bSTOP = TRUE; // need stop so the ready pin can assert when measure is done

	// write address
	bPass = OC_I2C_Write_Addr(RH_TEMP_I2C_OPENCORES_BASE,RH_Temp_DEVICE_ADDR,nRegisterNo, bSTOP);
    2470:	21803fcc 	andi	r6,r4,255
    2474:	01000134 	movhi	r4,4
	return bPass;
}


bool th_Read_Measure_Data(int nRegisterNo, alt_u8 *pData8, int nReadLength)
{
    2478:	dcc00315 	stw	r19,12(sp)
	bool bPass;
	const bool bSTOP = TRUE; // need stop so the ready pin can assert when measure is done

	// write address
	bPass = OC_I2C_Write_Addr(RH_TEMP_I2C_OPENCORES_BASE,RH_Temp_DEVICE_ADDR,nRegisterNo, bSTOP);
    247c:	21041004 	addi	r4,r4,4160
	return bPass;
}


bool th_Read_Measure_Data(int nRegisterNo, alt_u8 *pData8, int nReadLength)
{
    2480:	2827883a 	mov	r19,r5
	bool bPass;
	const bool bSTOP = TRUE; // need stop so the ready pin can assert when measure is done

	// write address
	bPass = OC_I2C_Write_Addr(RH_TEMP_I2C_OPENCORES_BASE,RH_Temp_DEVICE_ADDR,nRegisterNo, bSTOP);
    2484:	01c00044 	movi	r7,1
    2488:	01402004 	movi	r5,128
	return bPass;
}


bool th_Read_Measure_Data(int nRegisterNo, alt_u8 *pData8, int nReadLength)
{
    248c:	dfc00515 	stw	ra,20(sp)
    2490:	dc800215 	stw	r18,8(sp)
    2494:	dc400115 	stw	r17,4(sp)
    2498:	dc000015 	stw	r16,0(sp)
	bool bPass;
	const bool bSTOP = TRUE; // need stop so the ready pin can assert when measure is done

	// write address
	bPass = OC_I2C_Write_Addr(RH_TEMP_I2C_OPENCORES_BASE,RH_Temp_DEVICE_ADDR,nRegisterNo, bSTOP);
    249c:	00007b00 	call	7b0 <OC_I2C_Write_Addr>

	// check hardware pin DRDYn to make sure measure is done
	if (bPass){ // check ready hardware pin - DRDYn
    24a0:	10c03fcc 	andi	r3,r2,255
    24a4:	18001d26 	beq	r3,zero,251c <th_Read_Measure_Data+0xb8>
 * alt_nticks() returns the elapsed number of system clock ticks since reset.
 */

static ALT_INLINE alt_u32 ALT_ALWAYS_INLINE alt_nticks (void)
{
  return _alt_nticks;
    24a8:	d4a71717 	ldw	r18,-25508(gp)

		bPass = false;
		TimeStart = alt_nticks();
		bTimeout = false;
		while(!bPass && !bTimeout){
			if ((IORD(RH_TEMP_DRDY_N_BASE, 0x00) & 0x01) == 0x00)
    24ac:	04400134 	movhi	r17,4
    24b0:	8c443404 	addi	r17,r17,4304
    24b4:	88800037 	ldwio	r2,0(r17)
		alt_u32 TimeStart;

		bPass = false;
		TimeStart = alt_nticks();
		bTimeout = false;
		while(!bPass && !bTimeout){
    24b8:	01400284 	movi	r5,10
			if ((IORD(RH_TEMP_DRDY_N_BASE, 0x00) & 0x01) == 0x00)
    24bc:	1080004c 	andi	r2,r2,1
    24c0:	10000d1e 	bne	r2,zero,24f8 <th_Read_Measure_Data+0x94>
		bPass = TRUE;
	}

	// read measured data
	if (bPass){
		bPass =  OC_I2C_Read_Continue(RH_TEMP_I2C_OPENCORES_BASE,RH_Temp_DEVICE_ADDR, pData8, nReadLength);
    24c4:	01000134 	movhi	r4,4
    24c8:	21041004 	addi	r4,r4,4160
    24cc:	a00f883a 	mov	r7,r20
    24d0:	980d883a 	mov	r6,r19
    24d4:	01402004 	movi	r5,128
	}



	return bPass;
}
    24d8:	dfc00517 	ldw	ra,20(sp)
    24dc:	dd000417 	ldw	r20,16(sp)
    24e0:	dcc00317 	ldw	r19,12(sp)
    24e4:	dc800217 	ldw	r18,8(sp)
    24e8:	dc400117 	ldw	r17,4(sp)
    24ec:	dc000017 	ldw	r16,0(sp)
    24f0:	dec00604 	addi	sp,sp,24
		bPass = TRUE;
	}

	// read measured data
	if (bPass){
		bPass =  OC_I2C_Read_Continue(RH_TEMP_I2C_OPENCORES_BASE,RH_Temp_DEVICE_ADDR, pData8, nReadLength);
    24f4:	00008ac1 	jmpi	8ac <OC_I2C_Read_Continue>
    24f8:	d4271717 	ldw	r16,-25508(gp)
		alt_u32 TimeStart;

		bPass = false;
		TimeStart = alt_nticks();
		bTimeout = false;
		while(!bPass && !bTimeout){
    24fc:	d1271617 	ldw	r4,-25512(gp)
    2500:	84a1c83a 	sub	r16,r16,r18
    2504:	000509c0 	call	509c <__udivsi3>
    2508:	143fea2e 	bgeu	r2,r16,24b4 <__alt_mem_nios_system_shared_memory+0xfffc24b4>
				bPass = TRUE;
			else if ((alt_nticks() - TimeStart) > alt_ticks_per_second()/10) // 0.1 second for timeout
				bTimeout = TRUE;
		}
		if (!bPass)
			printf("Warning: DRDYn pin not ready (high)!\r\n");
    250c:	010000b4 	movhi	r4,2
    2510:	2138c404 	addi	r4,r4,-7408
    2514:	000b4c80 	call	b4c8 <puts>
    2518:	003fea06 	br	24c4 <__alt_mem_nios_system_shared_memory+0xfffc24c4>
	}



	return bPass;
}
    251c:	dfc00517 	ldw	ra,20(sp)
    2520:	dd000417 	ldw	r20,16(sp)
    2524:	dcc00317 	ldw	r19,12(sp)
    2528:	dc800217 	ldw	r18,8(sp)
    252c:	dc400117 	ldw	r17,4(sp)
    2530:	dc000017 	ldw	r16,0(sp)
    2534:	dec00604 	addi	sp,sp,24
    2538:	f800283a 	ret

0000253c <RH_Temp_Sensor_Read>:

    return bPass;

}

bool RH_Temp_Sensor_Read(float *fTemperature, float *fHumidity){
    253c:	defffb04 	addi	sp,sp,-20
    2540:	dc800315 	stw	r18,12(sp)
    2544:	dc400215 	stw	r17,8(sp)
    2548:	2025883a 	mov	r18,r4
    254c:	2823883a 	mov	r17,r5
	bool bPass;
	alt_u8 szValue8[4];
	alt_u16 Value16;
	//int i;

	bPass =  th_Read_Measure_Data(R_TEMPERATURE, szValue8, sizeof(szValue8));
    2550:	01800104 	movi	r6,4
    2554:	d80b883a 	mov	r5,sp
    2558:	0009883a 	mov	r4,zero

    return bPass;

}

bool RH_Temp_Sensor_Read(float *fTemperature, float *fHumidity){
    255c:	dc000115 	stw	r16,4(sp)
    2560:	dfc00415 	stw	ra,16(sp)
	bool bPass;
	alt_u8 szValue8[4];
	alt_u16 Value16;
	//int i;

	bPass =  th_Read_Measure_Data(R_TEMPERATURE, szValue8, sizeof(szValue8));
    2564:	00024640 	call	2464 <th_Read_Measure_Data>
    2568:	1021883a 	mov	r16,r2
	if (bPass){
    256c:	10803fcc 	andi	r2,r2,255
    2570:	10002326 	beq	r2,zero,2600 <RH_Temp_Sensor_Read+0xc4>
		//for(i=0;i<4;i++)
		//	printf("%02XH ", szValue8[i]);

		// temperature
		Value16 = (szValue8[0] << 8) | szValue8[1];
		*fTemperature = (float)Value16/397.188 -40.0;
    2574:	d8800003 	ldbu	r2,0(sp)
    2578:	d9000043 	ldbu	r4,1(sp)
    257c:	1004923a 	slli	r2,r2,8
    2580:	1108b03a 	or	r4,r2,r4
    2584:	00066bc0 	call	66bc <__floatunsisf>
    2588:	1009883a 	mov	r4,r2
    258c:	0008ec40 	call	8ec4 <__extendsfdf2>
    2590:	018312b4 	movhi	r6,3146
    2594:	01d01e74 	movhi	r7,16505
    2598:	31ae9784 	addi	r6,r6,-17826
    259c:	39f4c084 	addi	r7,r7,-11518
    25a0:	1009883a 	mov	r4,r2
    25a4:	180b883a 	mov	r5,r3
    25a8:	00070580 	call	7058 <__divdf3>
    25ac:	000d883a 	mov	r6,zero
    25b0:	01d01134 	movhi	r7,16452
    25b4:	1009883a 	mov	r4,r2
    25b8:	180b883a 	mov	r5,r3
    25bc:	00084ec0 	call	84ec <__subdf3>
    25c0:	180b883a 	mov	r5,r3
    25c4:	1009883a 	mov	r4,r2
    25c8:	0008fd40 	call	8fd4 <__truncdfsf2>

		// humidity
		Value16 = (szValue8[2] << 8) | szValue8[3];
		*fHumidity = (float)((float)Value16/65536)*100;
    25cc:	d8c00083 	ldbu	r3,2(sp)
    25d0:	d90000c3 	ldbu	r4,3(sp)
		//for(i=0;i<4;i++)
		//	printf("%02XH ", szValue8[i]);

		// temperature
		Value16 = (szValue8[0] << 8) | szValue8[1];
		*fTemperature = (float)Value16/397.188 -40.0;
    25d4:	90800015 	stw	r2,0(r18)

		// humidity
		Value16 = (szValue8[2] << 8) | szValue8[3];
		*fHumidity = (float)((float)Value16/65536)*100;
    25d8:	1806923a 	slli	r3,r3,8
    25dc:	1908b03a 	or	r4,r3,r4
    25e0:	00066bc0 	call	66bc <__floatunsisf>
    25e4:	014de034 	movhi	r5,14208
    25e8:	1009883a 	mov	r4,r2
    25ec:	0005c840 	call	5c84 <__mulsf3>
    25f0:	0150b234 	movhi	r5,17096
    25f4:	1009883a 	mov	r4,r2
    25f8:	0005c840 	call	5c84 <__mulsf3>
    25fc:	88800015 	stw	r2,0(r17)
	}

	return bPass;

}
    2600:	8005883a 	mov	r2,r16
    2604:	dfc00417 	ldw	ra,16(sp)
    2608:	dc800317 	ldw	r18,12(sp)
    260c:	dc400217 	ldw	r17,8(sp)
    2610:	dc000117 	ldw	r16,4(sp)
    2614:	dec00504 	addi	sp,sp,20
    2618:	f800283a 	ret

0000261c <th_reset>:

	return bPass;
}


bool th_reset(alt_u32 I2C_Controller_Base){
    261c:	defffd04 	addi	sp,sp,-12
	bool bPass;
	alt_u8 szData8[2];

	szData8[0] = (Data16 >> 8) & 0xFF;
	szData8[1] = Data16 & 0xFF;
	bPass = OC_I2C_Write(RH_TEMP_I2C_OPENCORES_BASE, RH_Temp_DEVICE_ADDR, RegisterPorinter, szData8, sizeof(szData8));
    2620:	01800084 	movi	r6,2
    2624:	01000134 	movhi	r4,4
    2628:	21041004 	addi	r4,r4,4160
    262c:	d9800015 	stw	r6,0(sp)
    2630:	d9c00104 	addi	r7,sp,4
    2634:	01402004 	movi	r5,128

bool th_write_register(alt_u8 RegisterPorinter, alt_u16 Data16){
	bool bPass;
	alt_u8 szData8[2];

	szData8[0] = (Data16 >> 8) & 0xFF;
    2638:	00bfe004 	movi	r2,-128

	return bPass;
}


bool th_reset(alt_u32 I2C_Controller_Base){
    263c:	dfc00215 	stw	ra,8(sp)

bool th_write_register(alt_u8 RegisterPorinter, alt_u16 Data16){
	bool bPass;
	alt_u8 szData8[2];

	szData8[0] = (Data16 >> 8) & 0xFF;
    2640:	d8800105 	stb	r2,4(sp)
	szData8[1] = Data16 & 0xFF;
    2644:	d8000145 	stb	zero,5(sp)
	bPass = OC_I2C_Write(RH_TEMP_I2C_OPENCORES_BASE, RH_Temp_DEVICE_ADDR, RegisterPorinter, szData8, sizeof(szData8));
    2648:	00004640 	call	464 <OC_I2C_Write>
bool th_reset(alt_u32 I2C_Controller_Base){
	bool bPass;

	bPass = th_write_register(R_CONFIGURATION, 0x8000);
	return bPass;
}
    264c:	dfc00217 	ldw	ra,8(sp)
    2650:	dec00304 	addi	sp,sp,12
    2654:	f800283a 	ret

00002658 <th_write_register>:

bool th_write_register(alt_u8 RegisterPorinter, alt_u16 Data16){
	bool bPass;
	alt_u8 szData8[2];

	szData8[0] = (Data16 >> 8) & 0xFF;
    2658:	2806d23a 	srli	r3,r5,8

	return bPass;
}


bool th_write_register(alt_u8 RegisterPorinter, alt_u16 Data16){
    265c:	defffd04 	addi	sp,sp,-12
    2660:	2805883a 	mov	r2,r5
	bool bPass;
	alt_u8 szData8[2];

	szData8[0] = (Data16 >> 8) & 0xFF;
	szData8[1] = Data16 & 0xFF;
	bPass = OC_I2C_Write(RH_TEMP_I2C_OPENCORES_BASE, RH_Temp_DEVICE_ADDR, RegisterPorinter, szData8, sizeof(szData8));
    2664:	21803fcc 	andi	r6,r4,255
    2668:	01400084 	movi	r5,2
    266c:	01000134 	movhi	r4,4
    2670:	d9400015 	stw	r5,0(sp)
    2674:	21041004 	addi	r4,r4,4160
    2678:	d9c00104 	addi	r7,sp,4
    267c:	01402004 	movi	r5,128

	return bPass;
}


bool th_write_register(alt_u8 RegisterPorinter, alt_u16 Data16){
    2680:	dfc00215 	stw	ra,8(sp)
	bool bPass;
	alt_u8 szData8[2];

	szData8[0] = (Data16 >> 8) & 0xFF;
    2684:	d8c00105 	stb	r3,4(sp)
	szData8[1] = Data16 & 0xFF;
    2688:	d8800145 	stb	r2,5(sp)
	bPass = OC_I2C_Write(RH_TEMP_I2C_OPENCORES_BASE, RH_Temp_DEVICE_ADDR, RegisterPorinter, szData8, sizeof(szData8));
    268c:	00004640 	call	464 <OC_I2C_Write>

	return bPass;

}
    2690:	dfc00217 	ldw	ra,8(sp)
    2694:	dec00304 	addi	sp,sp,12
    2698:	f800283a 	ret

0000269c <th_read_register>:


bool th_read_register(alt_u8 RegisterPorinter, alt_u16 *pData16){
    269c:	defffc04 	addi	sp,sp,-16
	bool bPass;
	alt_u8 szData8[2];

	bPass = OC_I2C_Read(RH_TEMP_I2C_OPENCORES_BASE, RH_Temp_DEVICE_ADDR, RegisterPorinter, szData8, sizeof(szData8));
    26a0:	21803fcc 	andi	r6,r4,255
    26a4:	00800084 	movi	r2,2
    26a8:	01000134 	movhi	r4,4
	return bPass;

}


bool th_read_register(alt_u8 RegisterPorinter, alt_u16 *pData16){
    26ac:	dc000215 	stw	r16,8(sp)
	bool bPass;
	alt_u8 szData8[2];

	bPass = OC_I2C_Read(RH_TEMP_I2C_OPENCORES_BASE, RH_Temp_DEVICE_ADDR, RegisterPorinter, szData8, sizeof(szData8));
    26b0:	21041004 	addi	r4,r4,4160
	return bPass;

}


bool th_read_register(alt_u8 RegisterPorinter, alt_u16 *pData16){
    26b4:	2821883a 	mov	r16,r5
	bool bPass;
	alt_u8 szData8[2];

	bPass = OC_I2C_Read(RH_TEMP_I2C_OPENCORES_BASE, RH_Temp_DEVICE_ADDR, RegisterPorinter, szData8, sizeof(szData8));
    26b8:	d8800015 	stw	r2,0(sp)
    26bc:	d9c00104 	addi	r7,sp,4
    26c0:	01402004 	movi	r5,128
	return bPass;

}


bool th_read_register(alt_u8 RegisterPorinter, alt_u16 *pData16){
    26c4:	dfc00315 	stw	ra,12(sp)
	bool bPass;
	alt_u8 szData8[2];

	bPass = OC_I2C_Read(RH_TEMP_I2C_OPENCORES_BASE, RH_Temp_DEVICE_ADDR, RegisterPorinter, szData8, sizeof(szData8));
    26c8:	00005e80 	call	5e8 <OC_I2C_Read>
	if (bPass){
    26cc:	10c03fcc 	andi	r3,r2,255
    26d0:	18000526 	beq	r3,zero,26e8 <th_read_register+0x4c>
		*pData16 = (szData8[0] << 8) | szData8[1];
    26d4:	d8c00103 	ldbu	r3,4(sp)
    26d8:	d9000143 	ldbu	r4,5(sp)
    26dc:	1806923a 	slli	r3,r3,8
    26e0:	1906b03a 	or	r3,r3,r4
    26e4:	80c0000d 	sth	r3,0(r16)
	}

	return bPass;


}
    26e8:	dfc00317 	ldw	ra,12(sp)
    26ec:	dc000217 	ldw	r16,8(sp)
    26f0:	dec00404 	addi	sp,sp,16
    26f4:	f800283a 	ret

000026f8 <Read_Configuration>:
}



bool Read_Configuration(void)
{
    26f8:	defffd04 	addi	sp,sp,-12
	bool bPass;
	alt_u16 data;

	bPass = th_read_register(R_CONFIGURATION, &data);
    26fc:	d80b883a 	mov	r5,sp
    2700:	01000084 	movi	r4,2
}



bool Read_Configuration(void)
{
    2704:	dc000115 	stw	r16,4(sp)
    2708:	dfc00215 	stw	ra,8(sp)
	bool bPass;
	alt_u16 data;

	bPass = th_read_register(R_CONFIGURATION, &data);
    270c:	000269c0 	call	269c <th_read_register>
    2710:	1021883a 	mov	r16,r2


	if(bPass){
    2714:	10803fcc 	andi	r2,r2,255
    2718:	10001c26 	beq	r2,zero,278c <Read_Configuration+0x94>

		printf("Read Configuration Data = 0x%04X \r\n",data);
    271c:	d940000b 	ldhu	r5,0(sp)
    2720:	010000b4 	movhi	r4,2
    2724:	2138ce04 	addi	r4,r4,-7368
    2728:	000b3ac0 	call	b3ac <printf>

		if(((data>>12)&0x0001) == 0) printf("Acquisition mode:Temperature or Humidity is acquired.\r\n ");
    272c:	d880000b 	ldhu	r2,0(sp)
    2730:	1004d33a 	srli	r2,r2,12
    2734:	1080004c 	andi	r2,r2,1
    2738:	10001c26 	beq	r2,zero,27ac <Read_Configuration+0xb4>
		else printf("Acquisition mode:Temperature and Humidity are acquired in sequence,Temperature first.\r\n ");
    273c:	010000b4 	movhi	r4,2
    2740:	2138e604 	addi	r4,r4,-7272
    2744:	000b3ac0 	call	b3ac <printf>

		if(((data>>10)&0x0001) == 0) printf("Temperature Measurement Resolution: 14 bit.\r\n ");
    2748:	d880000b 	ldhu	r2,0(sp)
    274c:	1004d2ba 	srli	r2,r2,10
    2750:	1080004c 	andi	r2,r2,1
    2754:	10001c1e 	bne	r2,zero,27c8 <Read_Configuration+0xd0>
    2758:	010000b4 	movhi	r4,2
    275c:	2138fd04 	addi	r4,r4,-7180
    2760:	000b3ac0 	call	b3ac <printf>
    2764:	d880000b 	ldhu	r2,0(sp)
    2768:	1004d23a 	srli	r2,r2,8
		else  printf("Temperature Measurement Resolution: 11 bit.\r\n ");

		if(((data>> 8)&0x0003) == 0) printf("Humidity Measurement Resolution: 14 bit.\r\n ");
    276c:	108000cc 	andi	r2,r2,3
    2770:	10001c26 	beq	r2,zero,27e4 <Read_Configuration+0xec>
		else if(((data>> 8)&0x0003) == 1) printf("Humidity Measurement Resolution: 11 bit.\r\n ");
    2774:	00c00044 	movi	r3,1
    2778:	10c01e26 	beq	r2,r3,27f4 <Read_Configuration+0xfc>
		else  printf("Humidity Measurement Resolution: 8 bit.\r\n ");
    277c:	010000b4 	movhi	r4,2
    2780:	21392b04 	addi	r4,r4,-6996
    2784:	000b3ac0 	call	b3ac <printf>
    2788:	00000306 	br	2798 <Read_Configuration+0xa0>

	}else{
		printf("Failed to read configure data.\r\n");
    278c:	010000b4 	movhi	r4,2
    2790:	21393604 	addi	r4,r4,-6952
    2794:	000b4c80 	call	b4c8 <puts>
	}

	return bPass;
}
    2798:	8005883a 	mov	r2,r16
    279c:	dfc00217 	ldw	ra,8(sp)
    27a0:	dc000117 	ldw	r16,4(sp)
    27a4:	dec00304 	addi	sp,sp,12
    27a8:	f800283a 	ret

	if(bPass){

		printf("Read Configuration Data = 0x%04X \r\n",data);

		if(((data>>12)&0x0001) == 0) printf("Acquisition mode:Temperature or Humidity is acquired.\r\n ");
    27ac:	010000b4 	movhi	r4,2
    27b0:	2138d704 	addi	r4,r4,-7332
    27b4:	000b3ac0 	call	b3ac <printf>
		else printf("Acquisition mode:Temperature and Humidity are acquired in sequence,Temperature first.\r\n ");

		if(((data>>10)&0x0001) == 0) printf("Temperature Measurement Resolution: 14 bit.\r\n ");
    27b8:	d880000b 	ldhu	r2,0(sp)
    27bc:	1004d2ba 	srli	r2,r2,10
    27c0:	1080004c 	andi	r2,r2,1
    27c4:	103fe426 	beq	r2,zero,2758 <__alt_mem_nios_system_shared_memory+0xfffc2758>
		else  printf("Temperature Measurement Resolution: 11 bit.\r\n ");
    27c8:	010000b4 	movhi	r4,2
    27cc:	21390904 	addi	r4,r4,-7132
    27d0:	000b3ac0 	call	b3ac <printf>
    27d4:	d880000b 	ldhu	r2,0(sp)
    27d8:	1004d23a 	srli	r2,r2,8

		if(((data>> 8)&0x0003) == 0) printf("Humidity Measurement Resolution: 14 bit.\r\n ");
    27dc:	108000cc 	andi	r2,r2,3
    27e0:	103fe41e 	bne	r2,zero,2774 <__alt_mem_nios_system_shared_memory+0xfffc2774>
    27e4:	010000b4 	movhi	r4,2
    27e8:	21391504 	addi	r4,r4,-7084
    27ec:	000b3ac0 	call	b3ac <printf>
    27f0:	003fe906 	br	2798 <__alt_mem_nios_system_shared_memory+0xfffc2798>
		else if(((data>> 8)&0x0003) == 1) printf("Humidity Measurement Resolution: 11 bit.\r\n ");
    27f4:	010000b4 	movhi	r4,2
    27f8:	21392004 	addi	r4,r4,-7040
    27fc:	000b3ac0 	call	b3ac <printf>
    2800:	003fe506 	br	2798 <__alt_mem_nios_system_shared_memory+0xfffc2798>

00002804 <th_dump_chip_info>:
	bPass = th_write_register(R_CONFIGURATION, 0x8000);
	return bPass;
}


bool th_dump_chip_info(alt_u32 I2C_Controller_Base){
    2804:	defffd04 	addi	sp,sp,-12
	alt_u16 Data16;
	bool bPass;

	// R_DEVICE_ID
	bPass = th_read_register(R_DEVICE_ID, &Data16);
    2808:	d80b883a 	mov	r5,sp
    280c:	01003fc4 	movi	r4,255
	bPass = th_write_register(R_CONFIGURATION, 0x8000);
	return bPass;
}


bool th_dump_chip_info(alt_u32 I2C_Controller_Base){
    2810:	dfc00215 	stw	ra,8(sp)
    2814:	dc000115 	stw	r16,4(sp)
	alt_u16 Data16;
	bool bPass;

	// R_DEVICE_ID
	bPass = th_read_register(R_DEVICE_ID, &Data16);
    2818:	000269c0 	call	269c <th_read_register>
	if (bPass){
    281c:	10803fcc 	andi	r2,r2,255
    2820:	10001b26 	beq	r2,zero,2890 <th_dump_chip_info+0x8c>
		printf("DEVICE ID=%04xh(0x1000 expected)\r\n", Data16);
    2824:	d940000b 	ldhu	r5,0(sp)
    2828:	010000b4 	movhi	r4,2
    282c:	21393e04 	addi	r4,r4,-6920
    2830:	000b3ac0 	call	b3ac <printf>
	}else{
		printf("Failed to read DEVICE ID\r\n");
	}

	// R_DEVICE_ID
	bPass = th_read_register(R_MANUFACTURER_ID, &Data16);
    2834:	d80b883a 	mov	r5,sp
    2838:	01003f84 	movi	r4,254
    283c:	000269c0 	call	269c <th_read_register>
	if (bPass){
    2840:	10803fcc 	andi	r2,r2,255
    2844:	10001626 	beq	r2,zero,28a0 <th_dump_chip_info+0x9c>
		printf("MANUFACTURER ID=%04xh(0x5449 expected)\r\n", Data16);
    2848:	d940000b 	ldhu	r5,0(sp)
    284c:	010000b4 	movhi	r4,2
    2850:	21394e04 	addi	r4,r4,-6856
    2854:	000b3ac0 	call	b3ac <printf>
	}else{
		printf("Failed to read MANUFACTURER ID\r\n");
	}

	// configure Data
	bPass =  th_read_register(R_CONFIGURATION, &Data16);
    2858:	d80b883a 	mov	r5,sp
    285c:	01000084 	movi	r4,2
    2860:	000269c0 	call	269c <th_read_register>
    2864:	1021883a 	mov	r16,r2
	if (bPass){
    2868:	10803fcc 	andi	r2,r2,255
    286c:	1000101e 	bne	r2,zero,28b0 <th_dump_chip_info+0xac>
		printf("Configure Data=%04xh\r\n", Data16);
	}else{
		printf("Failed to read configure data\r\n");
    2870:	010000b4 	movhi	r4,2
    2874:	21396704 	addi	r4,r4,-6756
    2878:	000b4c80 	call	b4c8 <puts>
	}

	return bPass;
}
    287c:	8005883a 	mov	r2,r16
    2880:	dfc00217 	ldw	ra,8(sp)
    2884:	dc000117 	ldw	r16,4(sp)
    2888:	dec00304 	addi	sp,sp,12
    288c:	f800283a 	ret
	// R_DEVICE_ID
	bPass = th_read_register(R_DEVICE_ID, &Data16);
	if (bPass){
		printf("DEVICE ID=%04xh(0x1000 expected)\r\n", Data16);
	}else{
		printf("Failed to read DEVICE ID\r\n");
    2890:	010000b4 	movhi	r4,2
    2894:	21394704 	addi	r4,r4,-6884
    2898:	000b4c80 	call	b4c8 <puts>
    289c:	003fe506 	br	2834 <__alt_mem_nios_system_shared_memory+0xfffc2834>
	// R_DEVICE_ID
	bPass = th_read_register(R_MANUFACTURER_ID, &Data16);
	if (bPass){
		printf("MANUFACTURER ID=%04xh(0x5449 expected)\r\n", Data16);
	}else{
		printf("Failed to read MANUFACTURER ID\r\n");
    28a0:	010000b4 	movhi	r4,2
    28a4:	21395904 	addi	r4,r4,-6812
    28a8:	000b4c80 	call	b4c8 <puts>
    28ac:	003fea06 	br	2858 <__alt_mem_nios_system_shared_memory+0xfffc2858>
	}

	// configure Data
	bPass =  th_read_register(R_CONFIGURATION, &Data16);
	if (bPass){
		printf("Configure Data=%04xh\r\n", Data16);
    28b0:	d940000b 	ldhu	r5,0(sp)
    28b4:	010000b4 	movhi	r4,2
    28b8:	21396104 	addi	r4,r4,-6780
    28bc:	000b3ac0 	call	b3ac <printf>
    28c0:	003fee06 	br	287c <__alt_mem_nios_system_shared_memory+0xfffc287c>

000028c4 <get_gppm>:
    char str[100];
    char cmd_buffer[100];
    char buffer[1000];\
    char* pend;
    if (success) {
        sprintf(cmd_buffer, "AT+CIPSTART=\"TCP\",\"%s\",80",
    28c4:	d1a00317 	ldw	r6,-32756(gp)

const char *get_time_request =
        "GET / HTTP/1.1\r\nHost: 192.168.1.19 \r\nConnection: close\r\n\r\n";

bool get_gppm(float *gas)
{
    28c8:	defecd04 	addi	sp,sp,-1228
    char str[100];
    char cmd_buffer[100];
    char buffer[1000];\
    char* pend;
    if (success) {
        sprintf(cmd_buffer, "AT+CIPSTART=\"TCP\",\"%s\",80",
    28cc:	014000b4 	movhi	r5,2

const char *get_time_request =
        "GET / HTTP/1.1\r\nHost: 192.168.1.19 \r\nConnection: close\r\n\r\n";

bool get_gppm(float *gas)
{
    28d0:	dd013115 	stw	r20,1220(sp)
    char str[100];
    char cmd_buffer[100];
    char buffer[1000];\
    char* pend;
    if (success) {
        sprintf(cmd_buffer, "AT+CIPSTART=\"TCP\",\"%s\",80",
    28d4:	29796f04 	addi	r5,r5,-6724

const char *get_time_request =
        "GET / HTTP/1.1\r\nHost: 192.168.1.19 \r\nConnection: close\r\n\r\n";

bool get_gppm(float *gas)
{
    28d8:	2029883a 	mov	r20,r4
    char str[100];
    char cmd_buffer[100];
    char buffer[1000];\
    char* pend;
    if (success) {
        sprintf(cmd_buffer, "AT+CIPSTART=\"TCP\",\"%s\",80",
    28dc:	d900fa04 	addi	r4,sp,1000

const char *get_time_request =
        "GET / HTTP/1.1\r\nHost: 192.168.1.19 \r\nConnection: close\r\n\r\n";

bool get_gppm(float *gas)
{
    28e0:	dfc13215 	stw	ra,1224(sp)
    28e4:	dcc13015 	stw	r19,1216(sp)
    28e8:	dc812f15 	stw	r18,1212(sp)
    28ec:	dc412e15 	stw	r17,1208(sp)
    28f0:	dc012d15 	stw	r16,1204(sp)
    char str[100];
    char cmd_buffer[100];
    char buffer[1000];\
    char* pend;
    if (success) {
        sprintf(cmd_buffer, "AT+CIPSTART=\"TCP\",\"%s\",80",
    28f4:	000b7780 	call	b778 <sprintf>
                time_server_domain);
        success = esp8266_send_command(cmd_buffer);
    28f8:	d900fa04 	addi	r4,sp,1000
    28fc:	0000df00 	call	df0 <esp8266_send_command>
    }
    if (success) {
    2900:	10803fcc 	andi	r2,r2,255
    2904:	10000a1e 	bne	r2,zero,2930 <get_gppm+0x6c>
        strcpy(str, buffer);

        *gas=strtof(str,&pend);

    } else {
    	success=false;
    2908:	0027883a 	mov	r19,zero

    }
    return success;
}
    290c:	9805883a 	mov	r2,r19
    2910:	dfc13217 	ldw	ra,1224(sp)
    2914:	dd013117 	ldw	r20,1220(sp)
    2918:	dcc13017 	ldw	r19,1216(sp)
    291c:	dc812f17 	ldw	r18,1212(sp)
    2920:	dc412e17 	ldw	r17,1208(sp)
    2924:	dc012d17 	ldw	r16,1204(sp)
    2928:	dec13304 	addi	sp,sp,1228
    292c:	f800283a 	ret
        sprintf(cmd_buffer, "AT+CIPSTART=\"TCP\",\"%s\",80",
                time_server_domain);
        success = esp8266_send_command(cmd_buffer);
    }
    if (success) {
        sprintf(cmd_buffer, "AT+CIPSEND=%d", strlen(get_time_request));
    2930:	d1200217 	ldw	r4,-32760(gp)
    2934:	000ba8c0 	call	ba8c <strlen>
    2938:	014000b4 	movhi	r5,2
    293c:	100d883a 	mov	r6,r2
    2940:	29797604 	addi	r5,r5,-6696
    2944:	d900fa04 	addi	r4,sp,1000
    2948:	000b7780 	call	b778 <sprintf>
        success = esp8266_send_command(cmd_buffer);
    294c:	d900fa04 	addi	r4,sp,1000
    2950:	0000df00 	call	df0 <esp8266_send_command>
    }
    if (success) {
    2954:	10803fcc 	andi	r2,r2,255
    2958:	103feb26 	beq	r2,zero,2908 <__alt_mem_nios_system_shared_memory+0xfffc2908>
        success = esp8266_send_data(get_time_request, strlen(get_time_request));
    295c:	d4200217 	ldw	r16,-32760(gp)
    2960:	8009883a 	mov	r4,r16
    2964:	000ba8c0 	call	ba8c <strlen>
    2968:	100b883a 	mov	r5,r2
    296c:	8009883a 	mov	r4,r16
    2970:	0000ee40 	call	ee4 <esp8266_send_data>
    2974:	1027883a 	mov	r19,r2
    }

    int length = 0;

    if (success) {
    2978:	10803fcc 	andi	r2,r2,255
    297c:	103fe226 	beq	r2,zero,2908 <__alt_mem_nios_system_shared_memory+0xfffc2908>
        while (1) {
            esp8266_gets(buffer, sizeof(buffer));
    2980:	0140fa04 	movi	r5,1000
    2984:	d809883a 	mov	r4,sp
    2988:	0000de80 	call	de8 <esp8266_gets>
            if (strstr(buffer, "+IPD") != NULL) {
    298c:	014000b4 	movhi	r5,2
    2990:	29797a04 	addi	r5,r5,-6680
    2994:	d809883a 	mov	r4,sp
    2998:	000bfd80 	call	bfd8 <strstr>
    299c:	103ff826 	beq	r2,zero,2980 <__alt_mem_nios_system_shared_memory+0xfffc2980>
                length = strlen(buffer);
    29a0:	d809883a 	mov	r4,sp
    29a4:	000ba8c0 	call	ba8c <strlen>
    29a8:	1023883a 	mov	r17,r2
                while (1) {
                    esp8266_gets(buffer + length, sizeof(buffer) - length);
    29ac:	0480fa04 	movi	r18,1000
    29b0:	00000206 	br	29bc <get_gppm+0xf8>
                    if (strcmp(buffer + length, "\r\n") == 0)
                        break;
                    length += strlen(buffer + length);
    29b4:	000ba8c0 	call	ba8c <strlen>
    29b8:	88a3883a 	add	r17,r17,r2
        while (1) {
            esp8266_gets(buffer, sizeof(buffer));
            if (strstr(buffer, "+IPD") != NULL) {
                length = strlen(buffer);
                while (1) {
                    esp8266_gets(buffer + length, sizeof(buffer) - length);
    29bc:	dc61883a 	add	r16,sp,r17
    29c0:	944bc83a 	sub	r5,r18,r17
    29c4:	8009883a 	mov	r4,r16
    29c8:	0000de80 	call	de8 <esp8266_gets>
                    if (strcmp(buffer + length, "\r\n") == 0)
    29cc:	014000b4 	movhi	r5,2
    29d0:	8009883a 	mov	r4,r16
    29d4:	297a2404 	addi	r5,r5,-6000
    29d8:	000b9200 	call	b920 <strcmp>
                        break;
                    length += strlen(buffer + length);
    29dc:	8009883a 	mov	r4,r16
            esp8266_gets(buffer, sizeof(buffer));
            if (strstr(buffer, "+IPD") != NULL) {
                length = strlen(buffer);
                while (1) {
                    esp8266_gets(buffer + length, sizeof(buffer) - length);
                    if (strcmp(buffer + length, "\r\n") == 0)
    29e0:	103ff41e 	bne	r2,zero,29b4 <__alt_mem_nios_system_shared_memory+0xfffc29b4>

                break;
            }
        }
        //printf("%d\n",length);
        esp8266_gets(buffer, 9);
    29e4:	01400244 	movi	r5,9
    29e8:	d809883a 	mov	r4,sp
    29ec:	0000de80 	call	de8 <esp8266_gets>
        //printf("time: %s\n", buffer);
    }

    if (success) {
        strcpy(str, buffer);
    29f0:	d80b883a 	mov	r5,sp
    29f4:	d9011304 	addi	r4,sp,1100
    29f8:	000b9fc0 	call	b9fc <strcpy>

        *gas=strtof(str,&pend);
    29fc:	d9412c04 	addi	r5,sp,1200
    2a00:	d9011304 	addi	r4,sp,1100
    2a04:	000d9e80 	call	d9e8 <strtof>
    2a08:	a0800015 	stw	r2,0(r20)
    2a0c:	003fbf06 	br	290c <__alt_mem_nios_system_shared_memory+0xfffc290c>

00002a10 <convert_light_lux>:
	float m[3][2];
	float gas[2];
	float spTemperature[2];
} thresh;

bool convert_light_lux(int light0, int light1, float *lux){
    2a10:	defff904 	addi	sp,sp,-28
    2a14:	dc800215 	stw	r18,8(sp)
    2a18:	2025883a 	mov	r18,r4
	float condition = (float)light1/(float)light0;
    2a1c:	2809883a 	mov	r4,r5
	float m[3][2];
	float gas[2];
	float spTemperature[2];
} thresh;

bool convert_light_lux(int light0, int light1, float *lux){
    2a20:	dfc00615 	stw	ra,24(sp)
    2a24:	dd000415 	stw	r20,16(sp)
    2a28:	dcc00315 	stw	r19,12(sp)
    2a2c:	dc000015 	stw	r16,0(sp)
    2a30:	2827883a 	mov	r19,r5
    2a34:	3029883a 	mov	r20,r6
    2a38:	dd400515 	stw	r21,20(sp)
    2a3c:	dc400115 	stw	r17,4(sp)
	float condition = (float)light1/(float)light0;
    2a40:	00065980 	call	6598 <__floatsisf>
    2a44:	9009883a 	mov	r4,r18
    2a48:	1021883a 	mov	r16,r2
    2a4c:	00065980 	call	6598 <__floatsisf>
    2a50:	8009883a 	mov	r4,r16
    2a54:	100b883a 	mov	r5,r2
    2a58:	00056480 	call	5648 <__divsf3>
	if 			(0 < condition    && condition <= 0.50) *lux = (0.0304 * light0) - (0.062 * light0 * powf(condition,1.4));
    2a5c:	000b883a 	mov	r5,zero
    2a60:	1009883a 	mov	r4,r2
	float gas[2];
	float spTemperature[2];
} thresh;

bool convert_light_lux(int light0, int light1, float *lux){
	float condition = (float)light1/(float)light0;
    2a64:	1021883a 	mov	r16,r2
	if 			(0 < condition    && condition <= 0.50) *lux = (0.0304 * light0) - (0.062 * light0 * powf(condition,1.4));
    2a68:	0005b000 	call	5b00 <__gesf2>
    2a6c:	0080040e 	bge	zero,r2,2a80 <convert_light_lux+0x70>
    2a70:	014fc034 	movhi	r5,16128
    2a74:	8009883a 	mov	r4,r16
    2a78:	0005bbc0 	call	5bbc <__lesf2>
    2a7c:	0080750e 	bge	zero,r2,2c54 <convert_light_lux+0x244>
	else if (0.50 < condition && condition <= 0.61) *lux = (0.0224 * light0) - (0.031 * light1);
    2a80:	8009883a 	mov	r4,r16
    2a84:	014fc034 	movhi	r5,16128
    2a88:	0005b000 	call	5b00 <__gesf2>
    2a8c:	8009883a 	mov	r4,r16
    2a90:	00802e16 	blt	zero,r2,2b4c <convert_light_lux+0x13c>
    2a94:	0008ec40 	call	8ec4 <__extendsfdf2>
    2a98:	1023883a 	mov	r17,r2
    2a9c:	1821883a 	mov	r16,r3
	else if (0.61 < condition && condition <= 0.80) *lux = (0.0128 * light0) - (0.0153 * light1);
    2aa0:	01ae14b4 	movhi	r6,47186
    2aa4:	01cff934 	movhi	r7,16356
    2aa8:	31bae144 	addi	r6,r6,-5243
    2aac:	39e14784 	addi	r7,r7,-31458
    2ab0:	8809883a 	mov	r4,r17
    2ab4:	800b883a 	mov	r5,r16
    2ab8:	0007ab00 	call	7ab0 <__gedf2>
    2abc:	0080080e 	bge	zero,r2,2ae0 <convert_light_lux+0xd0>
    2ac0:	01a666b4 	movhi	r6,39322
    2ac4:	01cffab4 	movhi	r7,16362
    2ac8:	31a66684 	addi	r6,r6,-26214
    2acc:	39e66644 	addi	r7,r7,-26215
    2ad0:	8809883a 	mov	r4,r17
    2ad4:	800b883a 	mov	r5,r16
    2ad8:	0007b8c0 	call	7b8c <__ledf2>
    2adc:	0080830e 	bge	zero,r2,2cec <convert_light_lux+0x2dc>
	else if (0.80 < condition && condition <= 1.30) *lux = (0.00146 * light1) - (0.00112 * light1);
    2ae0:	01a666b4 	movhi	r6,39322
    2ae4:	01cffab4 	movhi	r7,16362
    2ae8:	31a66684 	addi	r6,r6,-26214
    2aec:	39e66644 	addi	r7,r7,-26215
    2af0:	8809883a 	mov	r4,r17
    2af4:	800b883a 	mov	r5,r16
    2af8:	0007ab00 	call	7ab0 <__gedf2>
    2afc:	0080080e 	bge	zero,r2,2b20 <convert_light_lux+0x110>
    2b00:	01b33374 	movhi	r6,52429
    2b04:	01cffd74 	movhi	r7,16373
    2b08:	31b33344 	addi	r6,r6,-13107
    2b0c:	39f33304 	addi	r7,r7,-13108
    2b10:	8809883a 	mov	r4,r17
    2b14:	800b883a 	mov	r5,r16
    2b18:	0007b8c0 	call	7b8c <__ledf2>
    2b1c:	0080340e 	bge	zero,r2,2bf0 <convert_light_lux+0x1e0>
  else *lux = 0;
    2b20:	a0000015 	stw	zero,0(r20)
	return TRUE;
}
    2b24:	00800044 	movi	r2,1
    2b28:	dfc00617 	ldw	ra,24(sp)
    2b2c:	dd400517 	ldw	r21,20(sp)
    2b30:	dd000417 	ldw	r20,16(sp)
    2b34:	dcc00317 	ldw	r19,12(sp)
    2b38:	dc800217 	ldw	r18,8(sp)
    2b3c:	dc400117 	ldw	r17,4(sp)
    2b40:	dc000017 	ldw	r16,0(sp)
    2b44:	dec00704 	addi	sp,sp,28
    2b48:	f800283a 	ret
} thresh;

bool convert_light_lux(int light0, int light1, float *lux){
	float condition = (float)light1/(float)light0;
	if 			(0 < condition    && condition <= 0.50) *lux = (0.0304 * light0) - (0.062 * light0 * powf(condition,1.4));
	else if (0.50 < condition && condition <= 0.61) *lux = (0.0224 * light0) - (0.031 * light1);
    2b4c:	0008ec40 	call	8ec4 <__extendsfdf2>
    2b50:	01ae14b4 	movhi	r6,47186
    2b54:	01cff934 	movhi	r7,16356
    2b58:	31bae144 	addi	r6,r6,-5243
    2b5c:	39e14784 	addi	r7,r7,-31458
    2b60:	1009883a 	mov	r4,r2
    2b64:	180b883a 	mov	r5,r3
    2b68:	1023883a 	mov	r17,r2
    2b6c:	1821883a 	mov	r16,r3
    2b70:	0007b8c0 	call	7b8c <__ledf2>
    2b74:	00bfca16 	blt	zero,r2,2aa0 <__alt_mem_nios_system_shared_memory+0xfffc2aa0>
    2b78:	9009883a 	mov	r4,r18
    2b7c:	0008de80 	call	8de8 <__floatsidf>
    2b80:	01a36e74 	movhi	r6,36281
    2b84:	01cfe5f4 	movhi	r7,16279
    2b88:	31aeb1c4 	addi	r6,r6,-17721
    2b8c:	39fc0184 	addi	r7,r7,-4090
    2b90:	180b883a 	mov	r5,r3
    2b94:	1009883a 	mov	r4,r2
    2b98:	0007c800 	call	7c80 <__muldf3>
    2b9c:	9809883a 	mov	r4,r19
    2ba0:	1023883a 	mov	r17,r2
    2ba4:	1821883a 	mov	r16,r3
    2ba8:	0008de80 	call	8de8 <__floatsidf>
    2bac:	01b22d34 	movhi	r6,51380
    2bb0:	01cfe834 	movhi	r7,16288
    2bb4:	318e5604 	addi	r6,r6,14680
    2bb8:	39ef9d84 	addi	r7,r7,-16778
    2bbc:	1009883a 	mov	r4,r2
    2bc0:	180b883a 	mov	r5,r3
    2bc4:	0007c800 	call	7c80 <__muldf3>
    2bc8:	100d883a 	mov	r6,r2
    2bcc:	180f883a 	mov	r7,r3
    2bd0:	8809883a 	mov	r4,r17
    2bd4:	800b883a 	mov	r5,r16
    2bd8:	00084ec0 	call	84ec <__subdf3>
    2bdc:	1009883a 	mov	r4,r2
    2be0:	180b883a 	mov	r5,r3
    2be4:	0008fd40 	call	8fd4 <__truncdfsf2>
    2be8:	a0800015 	stw	r2,0(r20)
    2bec:	003fcd06 	br	2b24 <__alt_mem_nios_system_shared_memory+0xfffc2b24>
	else if (0.61 < condition && condition <= 0.80) *lux = (0.0128 * light0) - (0.0153 * light1);
	else if (0.80 < condition && condition <= 1.30) *lux = (0.00146 * light1) - (0.00112 * light1);
    2bf0:	9809883a 	mov	r4,r19
    2bf4:	0008de80 	call	8de8 <__floatsidf>
    2bf8:	018408f4 	movhi	r6,4131
    2bfc:	01cfd634 	movhi	r7,16216
    2c00:	3198ec84 	addi	r6,r6,25522
    2c04:	39faebc4 	addi	r7,r7,-5201
    2c08:	1009883a 	mov	r4,r2
    2c0c:	180b883a 	mov	r5,r3
    2c10:	1023883a 	mov	r17,r2
    2c14:	1821883a 	mov	r16,r3
    2c18:	0007c800 	call	7c80 <__muldf3>
    2c1c:	01b5f1f4 	movhi	r6,55239
    2c20:	01cfd4b4 	movhi	r7,16210
    2c24:	31bef484 	addi	r6,r6,-1070
    2c28:	39d66784 	addi	r7,r7,22942
    2c2c:	8809883a 	mov	r4,r17
    2c30:	800b883a 	mov	r5,r16
    2c34:	1027883a 	mov	r19,r2
    2c38:	1825883a 	mov	r18,r3
    2c3c:	0007c800 	call	7c80 <__muldf3>
    2c40:	100d883a 	mov	r6,r2
    2c44:	180f883a 	mov	r7,r3
    2c48:	9809883a 	mov	r4,r19
    2c4c:	900b883a 	mov	r5,r18
    2c50:	003fe106 	br	2bd8 <__alt_mem_nios_system_shared_memory+0xfffc2bd8>
	float spTemperature[2];
} thresh;

bool convert_light_lux(int light0, int light1, float *lux){
	float condition = (float)light1/(float)light0;
	if 			(0 < condition    && condition <= 0.50) *lux = (0.0304 * light0) - (0.062 * light0 * powf(condition,1.4));
    2c54:	9009883a 	mov	r4,r18
    2c58:	0008de80 	call	8de8 <__floatsidf>
    2c5c:	014fecf4 	movhi	r5,16307
    2c60:	8009883a 	mov	r4,r16
    2c64:	294cccc4 	addi	r5,r5,13107
    2c68:	1825883a 	mov	r18,r3
    2c6c:	1023883a 	mov	r17,r2
    2c70:	0003ab00 	call	3ab0 <powf>
    2c74:	019dccb4 	movhi	r6,30514
    2c78:	01cfe7f4 	movhi	r7,16287
    2c7c:	8809883a 	mov	r4,r17
